ARM GAS  C:\Users\admin\AppData\Local\Temp\cczmfw5p.s 			page 1


   1              		.syntax unified
   2              		.cpu cortex-m0plus
   3              		.fpu softvfp
   4              		.eabi_attribute 20, 1
   5              		.eabi_attribute 21, 1
   6              		.eabi_attribute 23, 3
   7              		.eabi_attribute 24, 1
   8              		.eabi_attribute 25, 1
   9              		.eabi_attribute 26, 1
  10              		.eabi_attribute 30, 1
  11              		.eabi_attribute 34, 0
  12              		.eabi_attribute 18, 4
  13              		.thumb
  14              		.syntax unified
  15              		.file	"main_cm0p.c"
  16              		.text
  17              	.Ltext0:
  18              		.cfi_sections	.debug_frame
  19              		.section	.text.WaitForOperation,"ax",%progbits
  20              		.align	2
  21              		.code	16
  22              		.thumb_func
  23              		.type	WaitForOperation, %function
  24              	WaitForOperation:
  25              	.LFB421:
  26              		.file 1 "main_cm0p.c"
   1:main_cm0p.c   **** /* ========================================
   2:main_cm0p.c   ****  *
   3:main_cm0p.c   ****  * Copyright YOUR COMPANY, THE YEAR
   4:main_cm0p.c   ****  * All Rights Reserved
   5:main_cm0p.c   ****  * UNPUBLISHED, LICENSED SOFTWARE.
   6:main_cm0p.c   ****  *
   7:main_cm0p.c   ****  * CONFIDENTIAL AND PROPRIETARY INFORMATION
   8:main_cm0p.c   ****  * WHICH IS THE PROPERTY OF your company.
   9:main_cm0p.c   ****  *
  10:main_cm0p.c   ****  * ========================================
  11:main_cm0p.c   **** */
  12:main_cm0p.c   **** #include "project.h"
  13:main_cm0p.c   **** #include "stdio.h"
  14:main_cm0p.c   **** #include <math.h>
  15:main_cm0p.c   **** 
  16:main_cm0p.c   **** #define UNIT_CONVERSION_DIGIT_MG 16
  17:main_cm0p.c   **** #define THOUSANDS 1000
  18:main_cm0p.c   **** #define GRAVITY 9.8
  19:main_cm0p.c   **** #define Rad_to_deg  57.2957951 // 180/pi
  20:main_cm0p.c   **** #define CarSlowing 1
  21:main_cm0p.c   **** #define CarNotSlowing 0
  22:main_cm0p.c   **** #define readMax 6  // #of counts to be measured 
  23:main_cm0p.c   **** 
  24:main_cm0p.c   **** int flag = 0;
  25:main_cm0p.c   **** int Detected = 0;
  26:main_cm0p.c   ****  
  27:main_cm0p.c   **** int readings_x[readMax], readings_y[readMax], readings_z[readMax]; // Array for measured x values
  28:main_cm0p.c   **** int readIndex = 0; // the location of measured valued to be stored; reading[readIndex]
  29:main_cm0p.c   **** 
  30:main_cm0p.c   **** double ac_x, ac_y, ac_z = 0;
  31:main_cm0p.c   **** double total_x,total_y,total_z = 0;  // Sum of measured values
ARM GAS  C:\Users\admin\AppData\Local\Temp\cczmfw5p.s 			page 2


  32:main_cm0p.c   **** 
  33:main_cm0p.c   **** double avg_x,avg_y,avg_z = 0; // Avg of measured current values
  34:main_cm0p.c   **** double prev_avg_x,prev_avg_y,prev_avg_z = 0; // Avg of stored previous values
  35:main_cm0p.c   **** 
  36:main_cm0p.c   **** static cy_stc_scb_i2c_master_xfer_config_t register_setting;
  37:main_cm0p.c   **** 
  38:main_cm0p.c   **** static uint8 rbuff[2];
  39:main_cm0p.c   **** static uint8 wbuff[2];
  40:main_cm0p.c   **** 
  41:main_cm0p.c   **** static void WaitForOperation()
  42:main_cm0p.c   **** {
  27              		.loc 1 42 0
  28              		.cfi_startproc
  29              		@ args = 0, pretend = 0, frame = 0
  30              		@ frame_needed = 0, uses_anonymous_args = 0
  31 0000 10B5     		push	{r4, lr}
  32              		.cfi_def_cfa_offset 8
  33              		.cfi_offset 4, -8
  34              		.cfi_offset 14, -4
  35              	.L2:
  36              	.LBB12:
  37              	.LBB13:
  38              		.file 2 "Generated_Source\\PSoC6/SensorBus.h"
   1:Generated_Source\PSoC6/SensorBus.h **** /***************************************************************************//**
   2:Generated_Source\PSoC6/SensorBus.h **** * \file SensorBus.c
   3:Generated_Source\PSoC6/SensorBus.h **** * \version 2.0
   4:Generated_Source\PSoC6/SensorBus.h **** *
   5:Generated_Source\PSoC6/SensorBus.h **** *  This file provides constants and parameter values for the I2C component.
   6:Generated_Source\PSoC6/SensorBus.h **** *
   7:Generated_Source\PSoC6/SensorBus.h **** ********************************************************************************
   8:Generated_Source\PSoC6/SensorBus.h **** * \copyright
   9:Generated_Source\PSoC6/SensorBus.h **** * Copyright 2016-2017, Cypress Semiconductor Corporation. All rights reserved.
  10:Generated_Source\PSoC6/SensorBus.h **** * You may use this file only in accordance with the license, terms, conditions,
  11:Generated_Source\PSoC6/SensorBus.h **** * disclaimers, and limitations in the end user license agreement accompanying
  12:Generated_Source\PSoC6/SensorBus.h **** * the software package with which this file was provided.
  13:Generated_Source\PSoC6/SensorBus.h **** *******************************************************************************/
  14:Generated_Source\PSoC6/SensorBus.h **** 
  15:Generated_Source\PSoC6/SensorBus.h **** #if !defined(SensorBus_CY_SCB_I2C_PDL_H)
  16:Generated_Source\PSoC6/SensorBus.h **** #define SensorBus_CY_SCB_I2C_PDL_H
  17:Generated_Source\PSoC6/SensorBus.h **** 
  18:Generated_Source\PSoC6/SensorBus.h **** #include "cyfitter.h"
  19:Generated_Source\PSoC6/SensorBus.h **** #include "scb/cy_scb_i2c.h"
  20:Generated_Source\PSoC6/SensorBus.h **** 
  21:Generated_Source\PSoC6/SensorBus.h **** #if defined(__cplusplus)
  22:Generated_Source\PSoC6/SensorBus.h **** extern "C" {
  23:Generated_Source\PSoC6/SensorBus.h **** #endif
  24:Generated_Source\PSoC6/SensorBus.h **** 
  25:Generated_Source\PSoC6/SensorBus.h **** /***************************************
  26:Generated_Source\PSoC6/SensorBus.h **** *   Initial Parameter Constants
  27:Generated_Source\PSoC6/SensorBus.h **** ****************************************/
  28:Generated_Source\PSoC6/SensorBus.h **** 
  29:Generated_Source\PSoC6/SensorBus.h **** #define SensorBus_MODE               (0x2U)
  30:Generated_Source\PSoC6/SensorBus.h **** #define SensorBus_MODE_SLAVE_MASK    (0x1U)
  31:Generated_Source\PSoC6/SensorBus.h **** #define SensorBus_MODE_MASTER_MASK   (0x2U)
  32:Generated_Source\PSoC6/SensorBus.h **** 
  33:Generated_Source\PSoC6/SensorBus.h **** #define SensorBus_ENABLE_SLAVE       (0UL != (SensorBus_MODE & SensorBus_MODE_SLAVE_MASK))
  34:Generated_Source\PSoC6/SensorBus.h **** #define SensorBus_ENABLE_MASTER      (0UL != (SensorBus_MODE & SensorBus_MODE_MASTER_MASK))
ARM GAS  C:\Users\admin\AppData\Local\Temp\cczmfw5p.s 			page 3


  35:Generated_Source\PSoC6/SensorBus.h **** #define SensorBus_MANUAL_SCL_CONTROL (0U)
  36:Generated_Source\PSoC6/SensorBus.h **** 
  37:Generated_Source\PSoC6/SensorBus.h **** 
  38:Generated_Source\PSoC6/SensorBus.h **** /***************************************
  39:Generated_Source\PSoC6/SensorBus.h **** *        Function Prototypes
  40:Generated_Source\PSoC6/SensorBus.h **** ***************************************/
  41:Generated_Source\PSoC6/SensorBus.h **** /**
  42:Generated_Source\PSoC6/SensorBus.h **** * \addtogroup group_general
  43:Generated_Source\PSoC6/SensorBus.h **** * @{
  44:Generated_Source\PSoC6/SensorBus.h **** */
  45:Generated_Source\PSoC6/SensorBus.h **** /* Component only APIs. */
  46:Generated_Source\PSoC6/SensorBus.h **** void SensorBus_Start(void);
  47:Generated_Source\PSoC6/SensorBus.h **** 
  48:Generated_Source\PSoC6/SensorBus.h **** /* Basic functions. */
  49:Generated_Source\PSoC6/SensorBus.h **** __STATIC_INLINE cy_en_scb_i2c_status_t SensorBus_Init(cy_stc_scb_i2c_config_t const *config);
  50:Generated_Source\PSoC6/SensorBus.h **** __STATIC_INLINE void SensorBus_DeInit (void);
  51:Generated_Source\PSoC6/SensorBus.h **** __STATIC_INLINE void SensorBus_Enable (void);
  52:Generated_Source\PSoC6/SensorBus.h **** __STATIC_INLINE void SensorBus_Disable(void);
  53:Generated_Source\PSoC6/SensorBus.h **** 
  54:Generated_Source\PSoC6/SensorBus.h **** /* Data rate configuration functions. */
  55:Generated_Source\PSoC6/SensorBus.h **** __STATIC_INLINE uint32_t SensorBus_SetDataRate(uint32_t dataRateHz, uint32_t scbClockHz);
  56:Generated_Source\PSoC6/SensorBus.h **** __STATIC_INLINE uint32_t SensorBus_GetDataRate(uint32_t scbClockHz);
  57:Generated_Source\PSoC6/SensorBus.h **** 
  58:Generated_Source\PSoC6/SensorBus.h **** /* Register callbacks. */
  59:Generated_Source\PSoC6/SensorBus.h **** __STATIC_INLINE void SensorBus_RegisterEventCallback(cy_cb_scb_i2c_handle_events_t callback);
  60:Generated_Source\PSoC6/SensorBus.h **** #if (SensorBus_ENABLE_SLAVE)
  61:Generated_Source\PSoC6/SensorBus.h **** __STATIC_INLINE void SensorBus_RegisterAddrCallback (cy_cb_scb_i2c_handle_addr_t callback);
  62:Generated_Source\PSoC6/SensorBus.h **** #endif /* (SensorBus_ENABLE_SLAVE) */
  63:Generated_Source\PSoC6/SensorBus.h **** 
  64:Generated_Source\PSoC6/SensorBus.h **** /* Configuration functions. */
  65:Generated_Source\PSoC6/SensorBus.h **** #if (SensorBus_ENABLE_SLAVE)
  66:Generated_Source\PSoC6/SensorBus.h **** __STATIC_INLINE void     SensorBus_SlaveSetAddress(uint8_t addr);
  67:Generated_Source\PSoC6/SensorBus.h **** __STATIC_INLINE uint32_t SensorBus_SlaveGetAddress(void);
  68:Generated_Source\PSoC6/SensorBus.h **** __STATIC_INLINE void     SensorBus_SlaveSetAddressMask(uint8_t addrMask);
  69:Generated_Source\PSoC6/SensorBus.h **** __STATIC_INLINE uint32_t SensorBus_SlaveGetAddressMask(void);
  70:Generated_Source\PSoC6/SensorBus.h **** #endif /* (SensorBus_ENABLE_SLAVE) */
  71:Generated_Source\PSoC6/SensorBus.h **** 
  72:Generated_Source\PSoC6/SensorBus.h **** #if (SensorBus_ENABLE_MASTER)
  73:Generated_Source\PSoC6/SensorBus.h **** __STATIC_INLINE void SensorBus_MasterSetLowPhaseDutyCycle (uint32_t clockCycles);
  74:Generated_Source\PSoC6/SensorBus.h **** __STATIC_INLINE void SensorBus_MasterSetHighPhaseDutyCycle(uint32_t clockCycles);
  75:Generated_Source\PSoC6/SensorBus.h **** #endif /* (SensorBus_ENABLE_MASTER) */
  76:Generated_Source\PSoC6/SensorBus.h **** 
  77:Generated_Source\PSoC6/SensorBus.h **** /* Bus status. */
  78:Generated_Source\PSoC6/SensorBus.h **** __STATIC_INLINE bool     SensorBus_IsBusBusy(void);
  79:Generated_Source\PSoC6/SensorBus.h **** 
  80:Generated_Source\PSoC6/SensorBus.h **** /* Slave functions. */
  81:Generated_Source\PSoC6/SensorBus.h **** #if (SensorBus_ENABLE_SLAVE)
  82:Generated_Source\PSoC6/SensorBus.h **** __STATIC_INLINE uint32_t SensorBus_SlaveGetStatus(void);
  83:Generated_Source\PSoC6/SensorBus.h **** 
  84:Generated_Source\PSoC6/SensorBus.h **** __STATIC_INLINE void     SensorBus_SlaveConfigReadBuf(uint8_t *buffer, uint32_t size);
  85:Generated_Source\PSoC6/SensorBus.h **** __STATIC_INLINE void     SensorBus_SlaveAbortRead(void);
  86:Generated_Source\PSoC6/SensorBus.h **** __STATIC_INLINE uint32_t SensorBus_SlaveGetReadTransferCount(void);
  87:Generated_Source\PSoC6/SensorBus.h **** __STATIC_INLINE uint32_t SensorBus_SlaveClearReadStatus(void);
  88:Generated_Source\PSoC6/SensorBus.h **** 
  89:Generated_Source\PSoC6/SensorBus.h **** __STATIC_INLINE void     SensorBus_SlaveConfigWriteBuf(uint8_t *buffer, uint32_t size);
  90:Generated_Source\PSoC6/SensorBus.h **** __STATIC_INLINE void     SensorBus_SlaveAbortWrite(void);
  91:Generated_Source\PSoC6/SensorBus.h **** __STATIC_INLINE uint32_t SensorBus_SlaveGetWriteTransferCount(void);
ARM GAS  C:\Users\admin\AppData\Local\Temp\cczmfw5p.s 			page 4


  92:Generated_Source\PSoC6/SensorBus.h **** __STATIC_INLINE uint32_t SensorBus_SlaveClearWriteStatus(void);
  93:Generated_Source\PSoC6/SensorBus.h **** #endif /* (SensorBus_ENABLE_SLAVE) */
  94:Generated_Source\PSoC6/SensorBus.h **** 
  95:Generated_Source\PSoC6/SensorBus.h **** /* Master interrupt processing functions. */
  96:Generated_Source\PSoC6/SensorBus.h **** #if (SensorBus_ENABLE_MASTER)
  97:Generated_Source\PSoC6/SensorBus.h **** __STATIC_INLINE uint32_t SensorBus_MasterGetStatus(void);
  98:Generated_Source\PSoC6/SensorBus.h **** 
  99:Generated_Source\PSoC6/SensorBus.h **** __STATIC_INLINE cy_en_scb_i2c_status_t SensorBus_MasterRead(cy_stc_scb_i2c_master_xfer_config_t *xf
 100:Generated_Source\PSoC6/SensorBus.h **** __STATIC_INLINE void SensorBus_MasterAbortRead(void);
 101:Generated_Source\PSoC6/SensorBus.h **** __STATIC_INLINE cy_en_scb_i2c_status_t SensorBus_MasterWrite(cy_stc_scb_i2c_master_xfer_config_t *x
 102:Generated_Source\PSoC6/SensorBus.h **** __STATIC_INLINE void SensorBus_MasterAbortWrite(void);
 103:Generated_Source\PSoC6/SensorBus.h **** __STATIC_INLINE uint32_t SensorBus_MasterGetTransferCount(void);
 104:Generated_Source\PSoC6/SensorBus.h **** 
 105:Generated_Source\PSoC6/SensorBus.h **** /* Master manual processing functions. */
 106:Generated_Source\PSoC6/SensorBus.h **** __STATIC_INLINE cy_en_scb_i2c_status_t SensorBus_MasterSendStart(uint32_t address, cy_en_scb_i2c_di
 107:Generated_Source\PSoC6/SensorBus.h **** __STATIC_INLINE cy_en_scb_i2c_status_t SensorBus_MasterSendReStart(uint32_t address, cy_en_scb_i2c_
 108:Generated_Source\PSoC6/SensorBus.h **** __STATIC_INLINE cy_en_scb_i2c_status_t SensorBus_MasterSendStop(uint32_t timeoutMs);
 109:Generated_Source\PSoC6/SensorBus.h **** __STATIC_INLINE cy_en_scb_i2c_status_t SensorBus_MasterReadByte(cy_en_scb_i2c_command_t ackNack, ui
 110:Generated_Source\PSoC6/SensorBus.h **** __STATIC_INLINE cy_en_scb_i2c_status_t SensorBus_MasterWriteByte(uint8_t byte, uint32_t timeoutMs);
 111:Generated_Source\PSoC6/SensorBus.h **** #endif /* (SensorBus_ENABLE_MASTER) */
 112:Generated_Source\PSoC6/SensorBus.h **** 
 113:Generated_Source\PSoC6/SensorBus.h **** /* Interrupt handler. */
 114:Generated_Source\PSoC6/SensorBus.h **** __STATIC_INLINE void SensorBus_Interrupt(void);
 115:Generated_Source\PSoC6/SensorBus.h **** /** @} group_general */
 116:Generated_Source\PSoC6/SensorBus.h **** 
 117:Generated_Source\PSoC6/SensorBus.h **** 
 118:Generated_Source\PSoC6/SensorBus.h **** /***************************************
 119:Generated_Source\PSoC6/SensorBus.h **** *    Variables with External Linkage
 120:Generated_Source\PSoC6/SensorBus.h **** ***************************************/
 121:Generated_Source\PSoC6/SensorBus.h **** /**
 122:Generated_Source\PSoC6/SensorBus.h **** * \addtogroup group_globals
 123:Generated_Source\PSoC6/SensorBus.h **** * @{
 124:Generated_Source\PSoC6/SensorBus.h **** */
 125:Generated_Source\PSoC6/SensorBus.h **** extern uint8_t SensorBus_initVar;
 126:Generated_Source\PSoC6/SensorBus.h **** extern cy_stc_scb_i2c_config_t const SensorBus_config;
 127:Generated_Source\PSoC6/SensorBus.h **** extern cy_stc_scb_i2c_context_t SensorBus_context;
 128:Generated_Source\PSoC6/SensorBus.h **** /** @} group_globals */
 129:Generated_Source\PSoC6/SensorBus.h **** 
 130:Generated_Source\PSoC6/SensorBus.h **** 
 131:Generated_Source\PSoC6/SensorBus.h **** /***************************************
 132:Generated_Source\PSoC6/SensorBus.h **** *         Preprocessor Macros
 133:Generated_Source\PSoC6/SensorBus.h **** ***************************************/
 134:Generated_Source\PSoC6/SensorBus.h **** /**
 135:Generated_Source\PSoC6/SensorBus.h **** * \addtogroup group_macros
 136:Generated_Source\PSoC6/SensorBus.h **** * @{
 137:Generated_Source\PSoC6/SensorBus.h **** */
 138:Generated_Source\PSoC6/SensorBus.h **** /** The pointer to the base address of the SCB instance */
 139:Generated_Source\PSoC6/SensorBus.h **** #define SensorBus_HW     ((CySCB_Type *) SensorBus_SCB__HW)
 140:Generated_Source\PSoC6/SensorBus.h **** 
 141:Generated_Source\PSoC6/SensorBus.h **** /** The desired data rate in Hz */
 142:Generated_Source\PSoC6/SensorBus.h **** #define SensorBus_DATA_RATE_HZ      (100000U)
 143:Generated_Source\PSoC6/SensorBus.h **** 
 144:Generated_Source\PSoC6/SensorBus.h **** /** The frequency of the clock used by the Component in Hz */
 145:Generated_Source\PSoC6/SensorBus.h **** #define SensorBus_CLK_FREQ_HZ       (1562500U)
 146:Generated_Source\PSoC6/SensorBus.h **** 
 147:Generated_Source\PSoC6/SensorBus.h **** /** The number of Component clocks used by the master to generate the SCL
 148:Generated_Source\PSoC6/SensorBus.h **** * low phase. This number is calculated by GUI based on the selected data rate.
ARM GAS  C:\Users\admin\AppData\Local\Temp\cczmfw5p.s 			page 5


 149:Generated_Source\PSoC6/SensorBus.h **** */
 150:Generated_Source\PSoC6/SensorBus.h **** #define SensorBus_LOW_PHASE_DUTY_CYCLE   (8U)
 151:Generated_Source\PSoC6/SensorBus.h **** 
 152:Generated_Source\PSoC6/SensorBus.h **** /** The number of Component clocks used by the master to generate the SCL
 153:Generated_Source\PSoC6/SensorBus.h **** * high phase. This number is calculated by GUI based on the selected data rate.
 154:Generated_Source\PSoC6/SensorBus.h **** */
 155:Generated_Source\PSoC6/SensorBus.h **** #define SensorBus_HIGH_PHASE_DUTY_CYCLE  (8U)
 156:Generated_Source\PSoC6/SensorBus.h **** /** @} group_macros */
 157:Generated_Source\PSoC6/SensorBus.h **** 
 158:Generated_Source\PSoC6/SensorBus.h **** 
 159:Generated_Source\PSoC6/SensorBus.h **** /***************************************
 160:Generated_Source\PSoC6/SensorBus.h **** *    In-line Function Implementation
 161:Generated_Source\PSoC6/SensorBus.h **** ***************************************/
 162:Generated_Source\PSoC6/SensorBus.h **** 
 163:Generated_Source\PSoC6/SensorBus.h **** /*******************************************************************************
 164:Generated_Source\PSoC6/SensorBus.h **** * Function Name: SensorBus_Init
 165:Generated_Source\PSoC6/SensorBus.h **** ****************************************************************************//**
 166:Generated_Source\PSoC6/SensorBus.h **** *
 167:Generated_Source\PSoC6/SensorBus.h **** * Invokes the Cy_SCB_I2C_Init() PDL driver function.
 168:Generated_Source\PSoC6/SensorBus.h **** *
 169:Generated_Source\PSoC6/SensorBus.h **** *******************************************************************************/
 170:Generated_Source\PSoC6/SensorBus.h **** __STATIC_INLINE cy_en_scb_i2c_status_t SensorBus_Init(cy_stc_scb_i2c_config_t const *config)
 171:Generated_Source\PSoC6/SensorBus.h **** {
 172:Generated_Source\PSoC6/SensorBus.h ****     return Cy_SCB_I2C_Init(SensorBus_HW, config, &SensorBus_context);
 173:Generated_Source\PSoC6/SensorBus.h **** }
 174:Generated_Source\PSoC6/SensorBus.h **** 
 175:Generated_Source\PSoC6/SensorBus.h **** 
 176:Generated_Source\PSoC6/SensorBus.h **** /*******************************************************************************
 177:Generated_Source\PSoC6/SensorBus.h **** *  Function Name: SensorBus_DeInit
 178:Generated_Source\PSoC6/SensorBus.h **** ****************************************************************************//**
 179:Generated_Source\PSoC6/SensorBus.h **** *
 180:Generated_Source\PSoC6/SensorBus.h **** * Invokes the Cy_SCB_I2C_DeInit() PDL driver function.
 181:Generated_Source\PSoC6/SensorBus.h **** *
 182:Generated_Source\PSoC6/SensorBus.h **** *******************************************************************************/
 183:Generated_Source\PSoC6/SensorBus.h **** __STATIC_INLINE void SensorBus_DeInit(void)
 184:Generated_Source\PSoC6/SensorBus.h **** {
 185:Generated_Source\PSoC6/SensorBus.h ****     Cy_SCB_I2C_DeInit(SensorBus_HW);
 186:Generated_Source\PSoC6/SensorBus.h **** }
 187:Generated_Source\PSoC6/SensorBus.h **** 
 188:Generated_Source\PSoC6/SensorBus.h **** 
 189:Generated_Source\PSoC6/SensorBus.h **** /*******************************************************************************
 190:Generated_Source\PSoC6/SensorBus.h **** * Function Name: SensorBus_Enable
 191:Generated_Source\PSoC6/SensorBus.h **** ****************************************************************************//**
 192:Generated_Source\PSoC6/SensorBus.h **** *
 193:Generated_Source\PSoC6/SensorBus.h **** * Invokes the Cy_SCB_I2C_Enable() PDL driver function.
 194:Generated_Source\PSoC6/SensorBus.h **** *
 195:Generated_Source\PSoC6/SensorBus.h **** *******************************************************************************/
 196:Generated_Source\PSoC6/SensorBus.h **** __STATIC_INLINE void SensorBus_Enable(void)
 197:Generated_Source\PSoC6/SensorBus.h **** {
 198:Generated_Source\PSoC6/SensorBus.h ****     Cy_SCB_I2C_Enable(SensorBus_HW);
 199:Generated_Source\PSoC6/SensorBus.h **** }
 200:Generated_Source\PSoC6/SensorBus.h **** 
 201:Generated_Source\PSoC6/SensorBus.h **** 
 202:Generated_Source\PSoC6/SensorBus.h **** /*******************************************************************************
 203:Generated_Source\PSoC6/SensorBus.h **** * Function Name: SensorBus_Disable
 204:Generated_Source\PSoC6/SensorBus.h **** ****************************************************************************//**
 205:Generated_Source\PSoC6/SensorBus.h **** *
ARM GAS  C:\Users\admin\AppData\Local\Temp\cczmfw5p.s 			page 6


 206:Generated_Source\PSoC6/SensorBus.h **** * Invokes the Cy_SCB_I2C_Disable() PDL driver function.
 207:Generated_Source\PSoC6/SensorBus.h **** *
 208:Generated_Source\PSoC6/SensorBus.h **** *******************************************************************************/
 209:Generated_Source\PSoC6/SensorBus.h **** __STATIC_INLINE void SensorBus_Disable(void)
 210:Generated_Source\PSoC6/SensorBus.h **** {
 211:Generated_Source\PSoC6/SensorBus.h ****     Cy_SCB_I2C_Disable(SensorBus_HW, &SensorBus_context);
 212:Generated_Source\PSoC6/SensorBus.h **** }
 213:Generated_Source\PSoC6/SensorBus.h **** 
 214:Generated_Source\PSoC6/SensorBus.h **** 
 215:Generated_Source\PSoC6/SensorBus.h **** /*******************************************************************************
 216:Generated_Source\PSoC6/SensorBus.h **** * Function Name: SensorBus_SetDataRate
 217:Generated_Source\PSoC6/SensorBus.h **** ****************************************************************************//**
 218:Generated_Source\PSoC6/SensorBus.h **** *
 219:Generated_Source\PSoC6/SensorBus.h **** * Invokes the Cy_SCB_I2C_SetDataRate() PDL driver function.
 220:Generated_Source\PSoC6/SensorBus.h **** *
 221:Generated_Source\PSoC6/SensorBus.h **** *******************************************************************************/
 222:Generated_Source\PSoC6/SensorBus.h **** __STATIC_INLINE uint32_t SensorBus_SetDataRate(uint32_t dataRateHz, uint32_t scbClockHz)
 223:Generated_Source\PSoC6/SensorBus.h **** {
 224:Generated_Source\PSoC6/SensorBus.h ****     return Cy_SCB_I2C_SetDataRate(SensorBus_HW, dataRateHz, scbClockHz);
 225:Generated_Source\PSoC6/SensorBus.h **** }
 226:Generated_Source\PSoC6/SensorBus.h **** 
 227:Generated_Source\PSoC6/SensorBus.h **** 
 228:Generated_Source\PSoC6/SensorBus.h **** /*******************************************************************************
 229:Generated_Source\PSoC6/SensorBus.h **** * Function Name: SensorBus_GetDataRate
 230:Generated_Source\PSoC6/SensorBus.h **** ****************************************************************************//**
 231:Generated_Source\PSoC6/SensorBus.h **** *
 232:Generated_Source\PSoC6/SensorBus.h **** * Invokes the Cy_SCB_I2C_GetDataRate() PDL driver function.
 233:Generated_Source\PSoC6/SensorBus.h **** *
 234:Generated_Source\PSoC6/SensorBus.h **** *******************************************************************************/
 235:Generated_Source\PSoC6/SensorBus.h **** __STATIC_INLINE uint32_t SensorBus_GetDataRate(uint32_t scbClockHz)
 236:Generated_Source\PSoC6/SensorBus.h **** {
 237:Generated_Source\PSoC6/SensorBus.h ****     return Cy_SCB_I2C_GetDataRate(SensorBus_HW, scbClockHz);
 238:Generated_Source\PSoC6/SensorBus.h **** }
 239:Generated_Source\PSoC6/SensorBus.h **** 
 240:Generated_Source\PSoC6/SensorBus.h **** 
 241:Generated_Source\PSoC6/SensorBus.h **** /*******************************************************************************
 242:Generated_Source\PSoC6/SensorBus.h **** * Function Name: SensorBus_RegisterEventCallback
 243:Generated_Source\PSoC6/SensorBus.h **** ****************************************************************************//**
 244:Generated_Source\PSoC6/SensorBus.h **** *
 245:Generated_Source\PSoC6/SensorBus.h **** * Invokes the Cy_SCB_I2C_RegisterEventCallback() PDL driver function.
 246:Generated_Source\PSoC6/SensorBus.h **** *
 247:Generated_Source\PSoC6/SensorBus.h **** *******************************************************************************/
 248:Generated_Source\PSoC6/SensorBus.h **** __STATIC_INLINE void SensorBus_RegisterEventCallback(cy_cb_scb_i2c_handle_events_t callback)
 249:Generated_Source\PSoC6/SensorBus.h **** {
 250:Generated_Source\PSoC6/SensorBus.h ****     Cy_SCB_I2C_RegisterEventCallback(SensorBus_HW, callback, &SensorBus_context);
 251:Generated_Source\PSoC6/SensorBus.h **** }
 252:Generated_Source\PSoC6/SensorBus.h **** 
 253:Generated_Source\PSoC6/SensorBus.h **** 
 254:Generated_Source\PSoC6/SensorBus.h **** #if (SensorBus_ENABLE_SLAVE)
 255:Generated_Source\PSoC6/SensorBus.h **** /*******************************************************************************
 256:Generated_Source\PSoC6/SensorBus.h **** * Function Name: SensorBus_RegisterAddrCallback
 257:Generated_Source\PSoC6/SensorBus.h **** ****************************************************************************//**
 258:Generated_Source\PSoC6/SensorBus.h **** *
 259:Generated_Source\PSoC6/SensorBus.h **** * Invokes the Cy_SCB_I2C_RegisterAddrCallback() PDL driver function.
 260:Generated_Source\PSoC6/SensorBus.h **** *
 261:Generated_Source\PSoC6/SensorBus.h **** *******************************************************************************/
 262:Generated_Source\PSoC6/SensorBus.h **** __STATIC_INLINE void SensorBus_RegisterAddrCallback(cy_cb_scb_i2c_handle_addr_t callback)
ARM GAS  C:\Users\admin\AppData\Local\Temp\cczmfw5p.s 			page 7


 263:Generated_Source\PSoC6/SensorBus.h **** {
 264:Generated_Source\PSoC6/SensorBus.h ****     Cy_SCB_I2C_RegisterAddrCallback(SensorBus_HW, callback, &SensorBus_context);
 265:Generated_Source\PSoC6/SensorBus.h **** }
 266:Generated_Source\PSoC6/SensorBus.h **** #endif /* (SensorBus_ENABLE_SLAVE) */
 267:Generated_Source\PSoC6/SensorBus.h **** 
 268:Generated_Source\PSoC6/SensorBus.h **** 
 269:Generated_Source\PSoC6/SensorBus.h **** /*******************************************************************************
 270:Generated_Source\PSoC6/SensorBus.h **** * Function Name: SensorBus_IsBusBusy
 271:Generated_Source\PSoC6/SensorBus.h **** ****************************************************************************//**
 272:Generated_Source\PSoC6/SensorBus.h **** *
 273:Generated_Source\PSoC6/SensorBus.h **** * Invokes the Cy_SCB_I2C_IsBusBusy() PDL driver function.
 274:Generated_Source\PSoC6/SensorBus.h **** *
 275:Generated_Source\PSoC6/SensorBus.h **** *******************************************************************************/
 276:Generated_Source\PSoC6/SensorBus.h **** __STATIC_INLINE bool SensorBus_IsBusBusy(void)
 277:Generated_Source\PSoC6/SensorBus.h **** {
 278:Generated_Source\PSoC6/SensorBus.h ****     return Cy_SCB_I2C_IsBusBusy(SensorBus_HW);
 279:Generated_Source\PSoC6/SensorBus.h **** }
 280:Generated_Source\PSoC6/SensorBus.h **** 
 281:Generated_Source\PSoC6/SensorBus.h **** 
 282:Generated_Source\PSoC6/SensorBus.h **** #if (SensorBus_ENABLE_SLAVE)
 283:Generated_Source\PSoC6/SensorBus.h **** /*******************************************************************************
 284:Generated_Source\PSoC6/SensorBus.h **** * Function Name: SensorBus_SlaveSetAddress
 285:Generated_Source\PSoC6/SensorBus.h **** ****************************************************************************//**
 286:Generated_Source\PSoC6/SensorBus.h **** *
 287:Generated_Source\PSoC6/SensorBus.h **** * Invokes the Cy_SCB_I2C_SlaveGetAddress() PDL driver function.
 288:Generated_Source\PSoC6/SensorBus.h **** *
 289:Generated_Source\PSoC6/SensorBus.h **** *******************************************************************************/
 290:Generated_Source\PSoC6/SensorBus.h **** __STATIC_INLINE void SensorBus_SlaveSetAddress(uint8_t addr)
 291:Generated_Source\PSoC6/SensorBus.h **** {
 292:Generated_Source\PSoC6/SensorBus.h ****     Cy_SCB_I2C_SlaveSetAddress(SensorBus_HW, addr);
 293:Generated_Source\PSoC6/SensorBus.h **** }
 294:Generated_Source\PSoC6/SensorBus.h **** 
 295:Generated_Source\PSoC6/SensorBus.h **** 
 296:Generated_Source\PSoC6/SensorBus.h **** /*******************************************************************************
 297:Generated_Source\PSoC6/SensorBus.h **** * Function Name: SensorBus_SlaveGetAddress
 298:Generated_Source\PSoC6/SensorBus.h **** ****************************************************************************//**
 299:Generated_Source\PSoC6/SensorBus.h **** *
 300:Generated_Source\PSoC6/SensorBus.h **** * Invokes the Cy_SCB_I2C_SlaveGetAddress() PDL driver function.
 301:Generated_Source\PSoC6/SensorBus.h **** *
 302:Generated_Source\PSoC6/SensorBus.h **** *******************************************************************************/
 303:Generated_Source\PSoC6/SensorBus.h **** __STATIC_INLINE uint32_t SensorBus_SlaveGetAddress(void)
 304:Generated_Source\PSoC6/SensorBus.h **** {
 305:Generated_Source\PSoC6/SensorBus.h ****     return Cy_SCB_I2C_SlaveGetAddress(SensorBus_HW);
 306:Generated_Source\PSoC6/SensorBus.h **** }
 307:Generated_Source\PSoC6/SensorBus.h **** 
 308:Generated_Source\PSoC6/SensorBus.h **** 
 309:Generated_Source\PSoC6/SensorBus.h **** /*******************************************************************************
 310:Generated_Source\PSoC6/SensorBus.h **** * Function Name: SensorBus_SlaveSetAddressMask
 311:Generated_Source\PSoC6/SensorBus.h **** ****************************************************************************//**
 312:Generated_Source\PSoC6/SensorBus.h **** *
 313:Generated_Source\PSoC6/SensorBus.h **** * Invokes the Cy_SCB_I2C_SlaveSetAddressMask() PDL driver function.
 314:Generated_Source\PSoC6/SensorBus.h **** *
 315:Generated_Source\PSoC6/SensorBus.h **** *******************************************************************************/
 316:Generated_Source\PSoC6/SensorBus.h **** __STATIC_INLINE void SensorBus_SlaveSetAddressMask(uint8_t addrMask)
 317:Generated_Source\PSoC6/SensorBus.h **** {
 318:Generated_Source\PSoC6/SensorBus.h ****     Cy_SCB_I2C_SlaveSetAddressMask(SensorBus_HW, addrMask);
 319:Generated_Source\PSoC6/SensorBus.h **** }
ARM GAS  C:\Users\admin\AppData\Local\Temp\cczmfw5p.s 			page 8


 320:Generated_Source\PSoC6/SensorBus.h **** 
 321:Generated_Source\PSoC6/SensorBus.h **** 
 322:Generated_Source\PSoC6/SensorBus.h **** /*******************************************************************************
 323:Generated_Source\PSoC6/SensorBus.h **** * Function Name: SensorBus_SlaveGetAddressMask
 324:Generated_Source\PSoC6/SensorBus.h **** ****************************************************************************//**
 325:Generated_Source\PSoC6/SensorBus.h **** *
 326:Generated_Source\PSoC6/SensorBus.h **** * Invokes the Cy_SCB_I2C_SlaveGetAddressMask() PDL driver function.
 327:Generated_Source\PSoC6/SensorBus.h **** *
 328:Generated_Source\PSoC6/SensorBus.h **** *******************************************************************************/
 329:Generated_Source\PSoC6/SensorBus.h **** __STATIC_INLINE uint32_t SensorBus_SlaveGetAddressMask(void)
 330:Generated_Source\PSoC6/SensorBus.h **** {
 331:Generated_Source\PSoC6/SensorBus.h ****     return Cy_SCB_I2C_SlaveGetAddressMask(SensorBus_HW);
 332:Generated_Source\PSoC6/SensorBus.h **** }
 333:Generated_Source\PSoC6/SensorBus.h **** #endif /* (SensorBus_ENABLE_SLAVE) */
 334:Generated_Source\PSoC6/SensorBus.h **** 
 335:Generated_Source\PSoC6/SensorBus.h **** #if (SensorBus_ENABLE_MASTER)
 336:Generated_Source\PSoC6/SensorBus.h **** /*******************************************************************************
 337:Generated_Source\PSoC6/SensorBus.h **** * Function Name: SensorBus_MasterSetLowPhaseDutyCycle
 338:Generated_Source\PSoC6/SensorBus.h **** ****************************************************************************//**
 339:Generated_Source\PSoC6/SensorBus.h **** *
 340:Generated_Source\PSoC6/SensorBus.h **** * Invokes the Cy_SCB_I2C_MasterSetLowPhaseDutyCycle() PDL driver function.
 341:Generated_Source\PSoC6/SensorBus.h **** *
 342:Generated_Source\PSoC6/SensorBus.h **** *******************************************************************************/
 343:Generated_Source\PSoC6/SensorBus.h **** __STATIC_INLINE void SensorBus_MasterSetLowPhaseDutyCycle(uint32_t clockCycles)
 344:Generated_Source\PSoC6/SensorBus.h **** {
 345:Generated_Source\PSoC6/SensorBus.h ****     Cy_SCB_I2C_MasterSetLowPhaseDutyCycle(SensorBus_HW, clockCycles);
 346:Generated_Source\PSoC6/SensorBus.h **** }
 347:Generated_Source\PSoC6/SensorBus.h **** 
 348:Generated_Source\PSoC6/SensorBus.h **** 
 349:Generated_Source\PSoC6/SensorBus.h **** /*******************************************************************************
 350:Generated_Source\PSoC6/SensorBus.h **** * Function Name: SensorBus_MasterSetHighPhaseDutyCycle
 351:Generated_Source\PSoC6/SensorBus.h **** ****************************************************************************//**
 352:Generated_Source\PSoC6/SensorBus.h **** *
 353:Generated_Source\PSoC6/SensorBus.h **** * Invokes the Cy_SCB_I2C_MasterSetHighPhaseDutyCycle() PDL driver function.
 354:Generated_Source\PSoC6/SensorBus.h **** *
 355:Generated_Source\PSoC6/SensorBus.h **** *******************************************************************************/
 356:Generated_Source\PSoC6/SensorBus.h **** __STATIC_INLINE void SensorBus_MasterSetHighPhaseDutyCycle(uint32_t clockCycles)
 357:Generated_Source\PSoC6/SensorBus.h **** {
 358:Generated_Source\PSoC6/SensorBus.h ****     Cy_SCB_I2C_MasterSetHighPhaseDutyCycle(SensorBus_HW, clockCycles);
 359:Generated_Source\PSoC6/SensorBus.h **** }
 360:Generated_Source\PSoC6/SensorBus.h **** #endif /* (SensorBus_ENABLE_MASTER) */
 361:Generated_Source\PSoC6/SensorBus.h **** 
 362:Generated_Source\PSoC6/SensorBus.h **** 
 363:Generated_Source\PSoC6/SensorBus.h **** #if (SensorBus_ENABLE_SLAVE)
 364:Generated_Source\PSoC6/SensorBus.h **** /*******************************************************************************
 365:Generated_Source\PSoC6/SensorBus.h **** * Function Name: SensorBus_SlaveGetStatus
 366:Generated_Source\PSoC6/SensorBus.h **** ****************************************************************************//**
 367:Generated_Source\PSoC6/SensorBus.h **** *
 368:Generated_Source\PSoC6/SensorBus.h **** * Invokes the Cy_SCB_I2C_SlaveGetStatus() PDL driver function.
 369:Generated_Source\PSoC6/SensorBus.h **** *
 370:Generated_Source\PSoC6/SensorBus.h **** *******************************************************************************/
 371:Generated_Source\PSoC6/SensorBus.h **** __STATIC_INLINE uint32_t SensorBus_SlaveGetStatus(void)
 372:Generated_Source\PSoC6/SensorBus.h **** {
 373:Generated_Source\PSoC6/SensorBus.h ****     return Cy_SCB_I2C_SlaveGetStatus(SensorBus_HW, &SensorBus_context);
 374:Generated_Source\PSoC6/SensorBus.h **** }
 375:Generated_Source\PSoC6/SensorBus.h **** 
 376:Generated_Source\PSoC6/SensorBus.h **** 
ARM GAS  C:\Users\admin\AppData\Local\Temp\cczmfw5p.s 			page 9


 377:Generated_Source\PSoC6/SensorBus.h **** /*******************************************************************************
 378:Generated_Source\PSoC6/SensorBus.h **** * Function Name: SensorBus_SlaveConfigReadBuf
 379:Generated_Source\PSoC6/SensorBus.h **** ****************************************************************************//**
 380:Generated_Source\PSoC6/SensorBus.h **** *
 381:Generated_Source\PSoC6/SensorBus.h **** * Invokes the Cy_SCB_I2C_SlaveConfigReadBuf() PDL driver function.
 382:Generated_Source\PSoC6/SensorBus.h **** *
 383:Generated_Source\PSoC6/SensorBus.h **** *******************************************************************************/
 384:Generated_Source\PSoC6/SensorBus.h **** __STATIC_INLINE void SensorBus_SlaveConfigReadBuf(uint8_t *buffer, uint32_t size)
 385:Generated_Source\PSoC6/SensorBus.h **** {
 386:Generated_Source\PSoC6/SensorBus.h ****     Cy_SCB_I2C_SlaveConfigReadBuf(SensorBus_HW, buffer, size, &SensorBus_context);
 387:Generated_Source\PSoC6/SensorBus.h **** }
 388:Generated_Source\PSoC6/SensorBus.h **** 
 389:Generated_Source\PSoC6/SensorBus.h **** 
 390:Generated_Source\PSoC6/SensorBus.h **** /*******************************************************************************
 391:Generated_Source\PSoC6/SensorBus.h **** * Function Name: SensorBus_SlaveAbortRead
 392:Generated_Source\PSoC6/SensorBus.h **** ****************************************************************************//**
 393:Generated_Source\PSoC6/SensorBus.h **** *
 394:Generated_Source\PSoC6/SensorBus.h **** * Invokes the Cy_SCB_I2C_SlaveAbortRead() PDL driver function.
 395:Generated_Source\PSoC6/SensorBus.h **** *
 396:Generated_Source\PSoC6/SensorBus.h **** *******************************************************************************/
 397:Generated_Source\PSoC6/SensorBus.h **** __STATIC_INLINE void SensorBus_SlaveAbortRead(void)
 398:Generated_Source\PSoC6/SensorBus.h **** {
 399:Generated_Source\PSoC6/SensorBus.h ****     Cy_SCB_I2C_SlaveAbortRead(SensorBus_HW, &SensorBus_context);
 400:Generated_Source\PSoC6/SensorBus.h **** }
 401:Generated_Source\PSoC6/SensorBus.h **** 
 402:Generated_Source\PSoC6/SensorBus.h **** 
 403:Generated_Source\PSoC6/SensorBus.h **** /*******************************************************************************
 404:Generated_Source\PSoC6/SensorBus.h **** * Function Name: SensorBus_SlaveGetReadTransferCount
 405:Generated_Source\PSoC6/SensorBus.h **** ****************************************************************************//**
 406:Generated_Source\PSoC6/SensorBus.h **** *
 407:Generated_Source\PSoC6/SensorBus.h **** * Invokes the Cy_SCB_I2C_SlaveGetReadTransferCount() PDL driver function.
 408:Generated_Source\PSoC6/SensorBus.h **** *
 409:Generated_Source\PSoC6/SensorBus.h **** *******************************************************************************/
 410:Generated_Source\PSoC6/SensorBus.h **** __STATIC_INLINE uint32_t SensorBus_SlaveGetReadTransferCount(void)
 411:Generated_Source\PSoC6/SensorBus.h **** {
 412:Generated_Source\PSoC6/SensorBus.h ****     return Cy_SCB_I2C_SlaveGetReadTransferCount(SensorBus_HW, &SensorBus_context);
 413:Generated_Source\PSoC6/SensorBus.h **** }
 414:Generated_Source\PSoC6/SensorBus.h **** 
 415:Generated_Source\PSoC6/SensorBus.h **** 
 416:Generated_Source\PSoC6/SensorBus.h **** /*******************************************************************************
 417:Generated_Source\PSoC6/SensorBus.h **** * Function Name: SensorBus_SlaveClearReadStatus
 418:Generated_Source\PSoC6/SensorBus.h **** ****************************************************************************//**
 419:Generated_Source\PSoC6/SensorBus.h **** *
 420:Generated_Source\PSoC6/SensorBus.h **** * Invokes the Cy_SCB_I2C_SlaveClearReadStatus() PDL driver function.
 421:Generated_Source\PSoC6/SensorBus.h **** *
 422:Generated_Source\PSoC6/SensorBus.h **** *******************************************************************************/
 423:Generated_Source\PSoC6/SensorBus.h **** __STATIC_INLINE uint32_t SensorBus_SlaveClearReadStatus(void)
 424:Generated_Source\PSoC6/SensorBus.h **** {
 425:Generated_Source\PSoC6/SensorBus.h ****     return Cy_SCB_I2C_SlaveClearReadStatus(SensorBus_HW, &SensorBus_context);
 426:Generated_Source\PSoC6/SensorBus.h **** }
 427:Generated_Source\PSoC6/SensorBus.h **** 
 428:Generated_Source\PSoC6/SensorBus.h **** 
 429:Generated_Source\PSoC6/SensorBus.h **** /*******************************************************************************
 430:Generated_Source\PSoC6/SensorBus.h **** * Function Name: SensorBus_SlaveConfigWriteBuf
 431:Generated_Source\PSoC6/SensorBus.h **** ****************************************************************************//**
 432:Generated_Source\PSoC6/SensorBus.h **** *
 433:Generated_Source\PSoC6/SensorBus.h **** * Invokes the Cy_SCB_I2C_SlaveConfigWriteBuf() PDL driver function.
ARM GAS  C:\Users\admin\AppData\Local\Temp\cczmfw5p.s 			page 10


 434:Generated_Source\PSoC6/SensorBus.h **** *
 435:Generated_Source\PSoC6/SensorBus.h **** *******************************************************************************/
 436:Generated_Source\PSoC6/SensorBus.h **** __STATIC_INLINE void SensorBus_SlaveConfigWriteBuf(uint8_t *buffer, uint32_t size)
 437:Generated_Source\PSoC6/SensorBus.h **** {
 438:Generated_Source\PSoC6/SensorBus.h ****     Cy_SCB_I2C_SlaveConfigWriteBuf(SensorBus_HW, buffer, size, &SensorBus_context);
 439:Generated_Source\PSoC6/SensorBus.h **** }
 440:Generated_Source\PSoC6/SensorBus.h **** 
 441:Generated_Source\PSoC6/SensorBus.h **** 
 442:Generated_Source\PSoC6/SensorBus.h **** /*******************************************************************************
 443:Generated_Source\PSoC6/SensorBus.h **** * Function Name: SensorBus_SlaveAbortWrite
 444:Generated_Source\PSoC6/SensorBus.h **** ****************************************************************************//**
 445:Generated_Source\PSoC6/SensorBus.h **** *
 446:Generated_Source\PSoC6/SensorBus.h **** * Invokes the Cy_SCB_I2C_SlaveAbortWrite() PDL driver function.
 447:Generated_Source\PSoC6/SensorBus.h **** *
 448:Generated_Source\PSoC6/SensorBus.h **** *******************************************************************************/
 449:Generated_Source\PSoC6/SensorBus.h **** __STATIC_INLINE void SensorBus_SlaveAbortWrite(void)
 450:Generated_Source\PSoC6/SensorBus.h **** {
 451:Generated_Source\PSoC6/SensorBus.h ****     Cy_SCB_I2C_SlaveAbortWrite(SensorBus_HW, &SensorBus_context);
 452:Generated_Source\PSoC6/SensorBus.h **** }
 453:Generated_Source\PSoC6/SensorBus.h **** 
 454:Generated_Source\PSoC6/SensorBus.h **** 
 455:Generated_Source\PSoC6/SensorBus.h **** /*******************************************************************************
 456:Generated_Source\PSoC6/SensorBus.h **** * Function Name: SensorBus_SlaveGetWriteTransferCount
 457:Generated_Source\PSoC6/SensorBus.h **** ****************************************************************************//**
 458:Generated_Source\PSoC6/SensorBus.h **** *
 459:Generated_Source\PSoC6/SensorBus.h **** * Invokes the Cy_SCB_I2C_SlaveGetWriteTransferCount() PDL driver function.
 460:Generated_Source\PSoC6/SensorBus.h **** *
 461:Generated_Source\PSoC6/SensorBus.h **** *******************************************************************************/
 462:Generated_Source\PSoC6/SensorBus.h **** __STATIC_INLINE uint32_t SensorBus_SlaveGetWriteTransferCount(void)
 463:Generated_Source\PSoC6/SensorBus.h **** {
 464:Generated_Source\PSoC6/SensorBus.h ****     return Cy_SCB_I2C_SlaveGetWriteTransferCount(SensorBus_HW, &SensorBus_context);
 465:Generated_Source\PSoC6/SensorBus.h **** }
 466:Generated_Source\PSoC6/SensorBus.h **** 
 467:Generated_Source\PSoC6/SensorBus.h **** 
 468:Generated_Source\PSoC6/SensorBus.h **** /*******************************************************************************
 469:Generated_Source\PSoC6/SensorBus.h **** * Function Name: SensorBus_SlaveClearWriteStatus
 470:Generated_Source\PSoC6/SensorBus.h **** ****************************************************************************//**
 471:Generated_Source\PSoC6/SensorBus.h **** *
 472:Generated_Source\PSoC6/SensorBus.h **** * Invokes the Cy_SCB_I2C_SlaveClearWriteStatus() PDL driver function.
 473:Generated_Source\PSoC6/SensorBus.h **** *
 474:Generated_Source\PSoC6/SensorBus.h **** *******************************************************************************/
 475:Generated_Source\PSoC6/SensorBus.h **** __STATIC_INLINE uint32_t SensorBus_SlaveClearWriteStatus(void)
 476:Generated_Source\PSoC6/SensorBus.h **** {
 477:Generated_Source\PSoC6/SensorBus.h ****     return Cy_SCB_I2C_SlaveClearWriteStatus(SensorBus_HW, &SensorBus_context);
 478:Generated_Source\PSoC6/SensorBus.h **** }
 479:Generated_Source\PSoC6/SensorBus.h **** #endif /* (SensorBus_ENABLE_SLAVE) */
 480:Generated_Source\PSoC6/SensorBus.h **** 
 481:Generated_Source\PSoC6/SensorBus.h **** 
 482:Generated_Source\PSoC6/SensorBus.h **** #if (SensorBus_ENABLE_MASTER)
 483:Generated_Source\PSoC6/SensorBus.h **** /*******************************************************************************
 484:Generated_Source\PSoC6/SensorBus.h **** * Function Name: SensorBus_MasterGetStatus
 485:Generated_Source\PSoC6/SensorBus.h **** ****************************************************************************//**
 486:Generated_Source\PSoC6/SensorBus.h **** *
 487:Generated_Source\PSoC6/SensorBus.h **** * Invokes the Cy_SCB_I2C_MasterGetStatus() PDL driver function.
 488:Generated_Source\PSoC6/SensorBus.h **** *
 489:Generated_Source\PSoC6/SensorBus.h **** *******************************************************************************/
 490:Generated_Source\PSoC6/SensorBus.h **** __STATIC_INLINE uint32_t SensorBus_MasterGetStatus(void)
ARM GAS  C:\Users\admin\AppData\Local\Temp\cczmfw5p.s 			page 11


 491:Generated_Source\PSoC6/SensorBus.h **** {
 492:Generated_Source\PSoC6/SensorBus.h ****     return Cy_SCB_I2C_MasterGetStatus(SensorBus_HW, &SensorBus_context);
  39              		.loc 2 492 0 discriminator 1
  40 0002 0549     		ldr	r1, .L3
  41 0004 0548     		ldr	r0, .L3+4
  42 0006 FFF7FEFF 		bl	Cy_SCB_I2C_MasterGetStatus
  43              	.LVL0:
  44              	.LBE13:
  45              	.LBE12:
  43:main_cm0p.c   ****     while(0 != (SensorBus_MasterGetStatus() & CY_SCB_I2C_MASTER_BUSY)) {}
  46              		.loc 1 43 0 discriminator 1
  47 000a C303     		lsls	r3, r0, #15
  48 000c F9D4     		bmi	.L2
  44:main_cm0p.c   ****     {
  45:main_cm0p.c   ****         CyDelayUs(1);
  49              		.loc 1 45 0
  50 000e 0120     		movs	r0, #1
  51 0010 FFF7FEFF 		bl	Cy_SysLib_DelayUs
  52              	.LVL1:
  46:main_cm0p.c   ****     }
  47:main_cm0p.c   **** }
  53              		.loc 1 47 0
  54              		@ sp needed
  55 0014 10BD     		pop	{r4, pc}
  56              	.L4:
  57 0016 C046     		.align	2
  58              	.L3:
  59 0018 00000000 		.word	SensorBus_context
  60 001c 00006740 		.word	1080492032
  61              		.cfi_endproc
  62              	.LFE421:
  63              		.size	WaitForOperation, .-WaitForOperation
  64              		.section	.text.ReadRegister,"ax",%progbits
  65              		.align	2
  66              		.code	16
  67              		.thumb_func
  68              		.type	ReadRegister, %function
  69              	ReadRegister:
  70              	.LFB423:
  48:main_cm0p.c   **** 
  49:main_cm0p.c   **** static void WriteRegister(uint8 reg_addr, uint8 data)
  50:main_cm0p.c   **** {
  51:main_cm0p.c   ****     wbuff[0] = reg_addr;
  52:main_cm0p.c   ****     wbuff[1] = data;
  53:main_cm0p.c   ****     
  54:main_cm0p.c   ****     register_setting.buffer = wbuff;
  55:main_cm0p.c   ****     register_setting.bufferSize = 2;
  56:main_cm0p.c   ****     register_setting.xferPending = false;
  57:main_cm0p.c   ****     
  58:main_cm0p.c   ****     SensorBus_MasterWrite(&register_setting);
  59:main_cm0p.c   ****     WaitForOperation();    
  60:main_cm0p.c   **** }
  61:main_cm0p.c   **** 
  62:main_cm0p.c   **** static uint8 ReadRegister(uint8 reg_addr)
  63:main_cm0p.c   **** {
  71              		.loc 1 63 0
  72              		.cfi_startproc
ARM GAS  C:\Users\admin\AppData\Local\Temp\cczmfw5p.s 			page 12


  73              		@ args = 0, pretend = 0, frame = 0
  74              		@ frame_needed = 0, uses_anonymous_args = 0
  75              	.LVL2:
  76 0000 F8B5     		push	{r3, r4, r5, r6, r7, lr}
  77              		.cfi_def_cfa_offset 24
  78              		.cfi_offset 3, -24
  79              		.cfi_offset 4, -20
  80              		.cfi_offset 5, -16
  81              		.cfi_offset 6, -12
  82              		.cfi_offset 7, -8
  83              		.cfi_offset 14, -4
  64:main_cm0p.c   ****     wbuff[0] = reg_addr;
  84              		.loc 1 64 0
  85 0002 0F4C     		ldr	r4, .L6
  86 0004 2070     		strb	r0, [r4]
  65:main_cm0p.c   ****     
  66:main_cm0p.c   ****     register_setting.buffer = wbuff;
  87              		.loc 1 66 0
  88 0006 A460     		str	r4, [r4, #8]
  67:main_cm0p.c   ****     register_setting.bufferSize = 1;
  89              		.loc 1 67 0
  90 0008 0123     		movs	r3, #1
  91 000a E360     		str	r3, [r4, #12]
  68:main_cm0p.c   ****     register_setting.xferPending = true;
  92              		.loc 1 68 0
  93 000c 2374     		strb	r3, [r4, #16]
  94              	.LVL3:
  95              	.LBB14:
  96              	.LBB15:
 493:Generated_Source\PSoC6/SensorBus.h **** }
 494:Generated_Source\PSoC6/SensorBus.h **** 
 495:Generated_Source\PSoC6/SensorBus.h **** 
 496:Generated_Source\PSoC6/SensorBus.h **** /*******************************************************************************
 497:Generated_Source\PSoC6/SensorBus.h **** * Function Name: SensorBus_MasterRead
 498:Generated_Source\PSoC6/SensorBus.h **** ****************************************************************************//**
 499:Generated_Source\PSoC6/SensorBus.h **** *
 500:Generated_Source\PSoC6/SensorBus.h **** * Invokes the Cy_SCB_I2C_MasterRead() PDL driver function.
 501:Generated_Source\PSoC6/SensorBus.h **** *
 502:Generated_Source\PSoC6/SensorBus.h **** *******************************************************************************/
 503:Generated_Source\PSoC6/SensorBus.h **** __STATIC_INLINE cy_en_scb_i2c_status_t SensorBus_MasterRead(cy_stc_scb_i2c_master_xfer_config_t *xf
 504:Generated_Source\PSoC6/SensorBus.h **** {
 505:Generated_Source\PSoC6/SensorBus.h ****     return Cy_SCB_I2C_MasterRead(SensorBus_HW, xferConfig, &SensorBus_context);
 506:Generated_Source\PSoC6/SensorBus.h **** }
 507:Generated_Source\PSoC6/SensorBus.h **** 
 508:Generated_Source\PSoC6/SensorBus.h **** 
 509:Generated_Source\PSoC6/SensorBus.h **** /*******************************************************************************
 510:Generated_Source\PSoC6/SensorBus.h **** * Function Name: SensorBus_MasterAbortRead
 511:Generated_Source\PSoC6/SensorBus.h **** ****************************************************************************//**
 512:Generated_Source\PSoC6/SensorBus.h **** *
 513:Generated_Source\PSoC6/SensorBus.h **** * Invokes the Cy_SCB_I2C_MasterAbortRead() PDL driver function.
 514:Generated_Source\PSoC6/SensorBus.h **** *
 515:Generated_Source\PSoC6/SensorBus.h **** ******************************************************************************/
 516:Generated_Source\PSoC6/SensorBus.h **** __STATIC_INLINE void SensorBus_MasterAbortRead(void)
 517:Generated_Source\PSoC6/SensorBus.h **** {
 518:Generated_Source\PSoC6/SensorBus.h ****     Cy_SCB_I2C_MasterAbortRead(SensorBus_HW, &SensorBus_context);
 519:Generated_Source\PSoC6/SensorBus.h **** }
 520:Generated_Source\PSoC6/SensorBus.h **** 
ARM GAS  C:\Users\admin\AppData\Local\Temp\cczmfw5p.s 			page 13


 521:Generated_Source\PSoC6/SensorBus.h **** 
 522:Generated_Source\PSoC6/SensorBus.h **** /*******************************************************************************
 523:Generated_Source\PSoC6/SensorBus.h **** * Function Name: SensorBus_MasterWrite
 524:Generated_Source\PSoC6/SensorBus.h **** ****************************************************************************//**
 525:Generated_Source\PSoC6/SensorBus.h **** *
 526:Generated_Source\PSoC6/SensorBus.h **** * Invokes the Cy_SCB_I2C_MasterWrite() PDL driver function.
 527:Generated_Source\PSoC6/SensorBus.h **** *
 528:Generated_Source\PSoC6/SensorBus.h **** *******************************************************************************/
 529:Generated_Source\PSoC6/SensorBus.h **** __STATIC_INLINE cy_en_scb_i2c_status_t SensorBus_MasterWrite(cy_stc_scb_i2c_master_xfer_config_t *x
 530:Generated_Source\PSoC6/SensorBus.h **** {
 531:Generated_Source\PSoC6/SensorBus.h ****     return Cy_SCB_I2C_MasterWrite(SensorBus_HW, xferConfig, &SensorBus_context);
  97              		.loc 2 531 0
  98 000e 0D4F     		ldr	r7, .L6+4
  99 0010 261D     		adds	r6, r4, #4
 100 0012 0D4D     		ldr	r5, .L6+8
 101 0014 3A00     		movs	r2, r7
 102 0016 3100     		movs	r1, r6
 103 0018 2800     		movs	r0, r5
 104              	.LVL4:
 105 001a FFF7FEFF 		bl	Cy_SCB_I2C_MasterWrite
 106              	.LVL5:
 107              	.LBE15:
 108              	.LBE14:
  69:main_cm0p.c   ****     
  70:main_cm0p.c   ****     SensorBus_MasterWrite(&register_setting);
  71:main_cm0p.c   ****     WaitForOperation();
 109              		.loc 1 71 0
 110 001e FFF7FEFF 		bl	WaitForOperation
 111              	.LVL6:
  72:main_cm0p.c   ****     
  73:main_cm0p.c   ****     register_setting.buffer = rbuff;
 112              		.loc 1 73 0
 113 0022 2300     		movs	r3, r4
 114 0024 1433     		adds	r3, r3, #20
 115 0026 A360     		str	r3, [r4, #8]
  74:main_cm0p.c   ****     register_setting.xferPending = false;
 116              		.loc 1 74 0
 117 0028 0023     		movs	r3, #0
 118 002a 2374     		strb	r3, [r4, #16]
 119              	.LVL7:
 120              	.LBB16:
 121              	.LBB17:
 505:Generated_Source\PSoC6/SensorBus.h **** }
 122              		.loc 2 505 0
 123 002c 3A00     		movs	r2, r7
 124 002e 3100     		movs	r1, r6
 125 0030 2800     		movs	r0, r5
 126 0032 FFF7FEFF 		bl	Cy_SCB_I2C_MasterRead
 127              	.LVL8:
 128              	.LBE17:
 129              	.LBE16:
  75:main_cm0p.c   ****     
  76:main_cm0p.c   ****     SensorBus_MasterRead(&register_setting);
  77:main_cm0p.c   ****     WaitForOperation();
 130              		.loc 1 77 0
 131 0036 FFF7FEFF 		bl	WaitForOperation
 132              	.LVL9:
ARM GAS  C:\Users\admin\AppData\Local\Temp\cczmfw5p.s 			page 14


  78:main_cm0p.c   ****     
  79:main_cm0p.c   ****     return rbuff[0];
 133              		.loc 1 79 0
 134 003a 207D     		ldrb	r0, [r4, #20]
  80:main_cm0p.c   **** }
 135              		.loc 1 80 0
 136              		@ sp needed
 137 003c F8BD     		pop	{r3, r4, r5, r6, r7, pc}
 138              	.L7:
 139 003e C046     		.align	2
 140              	.L6:
 141 0040 00000000 		.word	.LANCHOR0
 142 0044 00000000 		.word	SensorBus_context
 143 0048 00006740 		.word	1080492032
 144              		.cfi_endproc
 145              	.LFE423:
 146              		.size	ReadRegister, .-ReadRegister
 147              		.section	.text.WriteRegister,"ax",%progbits
 148              		.align	2
 149              		.code	16
 150              		.thumb_func
 151              		.type	WriteRegister, %function
 152              	WriteRegister:
 153              	.LFB422:
  50:main_cm0p.c   ****     wbuff[0] = reg_addr;
 154              		.loc 1 50 0
 155              		.cfi_startproc
 156              		@ args = 0, pretend = 0, frame = 0
 157              		@ frame_needed = 0, uses_anonymous_args = 0
 158              	.LVL10:
 159 0000 10B5     		push	{r4, lr}
 160              		.cfi_def_cfa_offset 8
 161              		.cfi_offset 4, -8
 162              		.cfi_offset 14, -4
  51:main_cm0p.c   ****     wbuff[1] = data;
 163              		.loc 1 51 0
 164 0002 084B     		ldr	r3, .L9
 165 0004 1870     		strb	r0, [r3]
  52:main_cm0p.c   ****     
 166              		.loc 1 52 0
 167 0006 5970     		strb	r1, [r3, #1]
  54:main_cm0p.c   ****     register_setting.bufferSize = 2;
 168              		.loc 1 54 0
 169 0008 9B60     		str	r3, [r3, #8]
  55:main_cm0p.c   ****     register_setting.xferPending = false;
 170              		.loc 1 55 0
 171 000a 0222     		movs	r2, #2
 172 000c DA60     		str	r2, [r3, #12]
  56:main_cm0p.c   ****     
 173              		.loc 1 56 0
 174 000e 0022     		movs	r2, #0
 175 0010 1A74     		strb	r2, [r3, #16]
 176              	.LVL11:
 177              	.LBB18:
 178              	.LBB19:
 179              		.loc 2 531 0
 180 0012 191D     		adds	r1, r3, #4
ARM GAS  C:\Users\admin\AppData\Local\Temp\cczmfw5p.s 			page 15


 181              	.LVL12:
 182 0014 044A     		ldr	r2, .L9+4
 183 0016 0548     		ldr	r0, .L9+8
 184              	.LVL13:
 185 0018 FFF7FEFF 		bl	Cy_SCB_I2C_MasterWrite
 186              	.LVL14:
 187              	.LBE19:
 188              	.LBE18:
  59:main_cm0p.c   **** }
 189              		.loc 1 59 0
 190 001c FFF7FEFF 		bl	WaitForOperation
 191              	.LVL15:
  60:main_cm0p.c   **** 
 192              		.loc 1 60 0
 193              		@ sp needed
 194 0020 10BD     		pop	{r4, pc}
 195              	.L10:
 196 0022 C046     		.align	2
 197              	.L9:
 198 0024 00000000 		.word	.LANCHOR0
 199 0028 00000000 		.word	SensorBus_context
 200 002c 00006740 		.word	1080492032
 201              		.cfi_endproc
 202              	.LFE422:
 203              		.size	WriteRegister, .-WriteRegister
 204              		.global	__aeabi_i2d
 205              		.global	__aeabi_ui2d
 206              		.global	__aeabi_dmul
 207              		.global	__aeabi_ddiv
 208              		.section	.text.xaccel_calculate,"ax",%progbits
 209              		.align	2
 210              		.global	xaccel_calculate
 211              		.code	16
 212              		.thumb_func
 213              		.type	xaccel_calculate, %function
 214              	xaccel_calculate:
 215              	.LFB424:
  81:main_cm0p.c   **** 
  82:main_cm0p.c   **** double xaccel_calculate() {
 216              		.loc 1 82 0
 217              		.cfi_startproc
 218              		@ args = 0, pretend = 0, frame = 0
 219              		@ frame_needed = 0, uses_anonymous_args = 0
 220 0000 10B5     		push	{r4, lr}
 221              		.cfi_def_cfa_offset 8
 222              		.cfi_offset 4, -8
 223              		.cfi_offset 14, -4
  83:main_cm0p.c   **** // Data read
  84:main_cm0p.c   ****     uint8 x = ReadRegister(0x29);
 224              		.loc 1 84 0
 225 0002 2920     		movs	r0, #41
 226 0004 FFF7FEFF 		bl	ReadRegister
 227              	.LVL16:
  85:main_cm0p.c   **** // Data SHIFT
  86:main_cm0p.c   ****     if (x > 127) ac_x = x - 256;
 228              		.loc 1 86 0
 229 0008 0306     		lsls	r3, r0, #24
ARM GAS  C:\Users\admin\AppData\Local\Temp\cczmfw5p.s 			page 16


 230 000a 07D5     		bpl	.L12
 231              		.loc 1 86 0 is_stmt 0 discriminator 1
 232 000c 0138     		subs	r0, r0, #1
 233              	.LVL17:
 234 000e FF38     		subs	r0, r0, #255
 235 0010 FFF7FEFF 		bl	__aeabi_i2d
 236              	.LVL18:
 237 0014 0D4B     		ldr	r3, .L14
 238 0016 1860     		str	r0, [r3]
 239 0018 5960     		str	r1, [r3, #4]
 240 001a 04E0     		b	.L13
 241              	.LVL19:
 242              	.L12:
  87:main_cm0p.c   ****     else ac_x = x;
 243              		.loc 1 87 0 is_stmt 1
 244 001c FFF7FEFF 		bl	__aeabi_ui2d
 245              	.LVL20:
 246 0020 0A4B     		ldr	r3, .L14
 247 0022 1860     		str	r0, [r3]
 248 0024 5960     		str	r1, [r3, #4]
 249              	.L13:
  88:main_cm0p.c   **** // Unit Conversion
  89:main_cm0p.c   ****     ac_x = (ac_x * UNIT_CONVERSION_DIGIT_MG)/THOUSANDS * GRAVITY;
 250              		.loc 1 89 0
 251 0026 094C     		ldr	r4, .L14
 252 0028 0022     		movs	r2, #0
 253 002a 094B     		ldr	r3, .L14+4
 254 002c 2068     		ldr	r0, [r4]
 255 002e 6168     		ldr	r1, [r4, #4]
 256 0030 FFF7FEFF 		bl	__aeabi_dmul
 257              	.LVL21:
 258 0034 0022     		movs	r2, #0
 259 0036 074B     		ldr	r3, .L14+8
 260 0038 FFF7FEFF 		bl	__aeabi_ddiv
 261              	.LVL22:
 262 003c 064A     		ldr	r2, .L14+12
 263 003e 074B     		ldr	r3, .L14+16
 264 0040 FFF7FEFF 		bl	__aeabi_dmul
 265              	.LVL23:
 266 0044 2060     		str	r0, [r4]
 267 0046 6160     		str	r1, [r4, #4]
  90:main_cm0p.c   ****         
  91:main_cm0p.c   ****     return ac_x;
  92:main_cm0p.c   **** } 
 268              		.loc 1 92 0
 269              		@ sp needed
 270 0048 10BD     		pop	{r4, pc}
 271              	.L15:
 272 004a C046     		.align	2
 273              	.L14:
 274 004c 00000000 		.word	ac_x
 275 0050 00003040 		.word	1076887552
 276 0054 00408F40 		.word	1083129856
 277 0058 9A999999 		.word	-1717986918
 278 005c 99992340 		.word	1076074905
 279              		.cfi_endproc
 280              	.LFE424:
ARM GAS  C:\Users\admin\AppData\Local\Temp\cczmfw5p.s 			page 17


 281              		.size	xaccel_calculate, .-xaccel_calculate
 282              		.section	.text.yaccel_calculate,"ax",%progbits
 283              		.align	2
 284              		.global	yaccel_calculate
 285              		.code	16
 286              		.thumb_func
 287              		.type	yaccel_calculate, %function
 288              	yaccel_calculate:
 289              	.LFB425:
  93:main_cm0p.c   **** 
  94:main_cm0p.c   **** double yaccel_calculate() {
 290              		.loc 1 94 0
 291              		.cfi_startproc
 292              		@ args = 0, pretend = 0, frame = 0
 293              		@ frame_needed = 0, uses_anonymous_args = 0
 294 0000 10B5     		push	{r4, lr}
 295              		.cfi_def_cfa_offset 8
 296              		.cfi_offset 4, -8
 297              		.cfi_offset 14, -4
  95:main_cm0p.c   **** // Data read
  96:main_cm0p.c   ****     uint8 y = ReadRegister(0x2B);
 298              		.loc 1 96 0
 299 0002 2B20     		movs	r0, #43
 300 0004 FFF7FEFF 		bl	ReadRegister
 301              	.LVL24:
  97:main_cm0p.c   **** // Data SHIFT
  98:main_cm0p.c   ****     if (y > 127) ac_y = y - 256;
 302              		.loc 1 98 0
 303 0008 0306     		lsls	r3, r0, #24
 304 000a 07D5     		bpl	.L17
 305              		.loc 1 98 0 is_stmt 0 discriminator 1
 306 000c 0138     		subs	r0, r0, #1
 307              	.LVL25:
 308 000e FF38     		subs	r0, r0, #255
 309 0010 FFF7FEFF 		bl	__aeabi_i2d
 310              	.LVL26:
 311 0014 0D4B     		ldr	r3, .L19
 312 0016 1860     		str	r0, [r3]
 313 0018 5960     		str	r1, [r3, #4]
 314 001a 04E0     		b	.L18
 315              	.LVL27:
 316              	.L17:
  99:main_cm0p.c   ****     else ac_y = y;
 317              		.loc 1 99 0 is_stmt 1
 318 001c FFF7FEFF 		bl	__aeabi_ui2d
 319              	.LVL28:
 320 0020 0A4B     		ldr	r3, .L19
 321 0022 1860     		str	r0, [r3]
 322 0024 5960     		str	r1, [r3, #4]
 323              	.L18:
 100:main_cm0p.c   **** // Unit Conversion
 101:main_cm0p.c   ****     ac_y = (ac_y * UNIT_CONVERSION_DIGIT_MG)/THOUSANDS * GRAVITY;
 324              		.loc 1 101 0
 325 0026 094C     		ldr	r4, .L19
 326 0028 0022     		movs	r2, #0
 327 002a 094B     		ldr	r3, .L19+4
 328 002c 2068     		ldr	r0, [r4]
ARM GAS  C:\Users\admin\AppData\Local\Temp\cczmfw5p.s 			page 18


 329 002e 6168     		ldr	r1, [r4, #4]
 330 0030 FFF7FEFF 		bl	__aeabi_dmul
 331              	.LVL29:
 332 0034 0022     		movs	r2, #0
 333 0036 074B     		ldr	r3, .L19+8
 334 0038 FFF7FEFF 		bl	__aeabi_ddiv
 335              	.LVL30:
 336 003c 064A     		ldr	r2, .L19+12
 337 003e 074B     		ldr	r3, .L19+16
 338 0040 FFF7FEFF 		bl	__aeabi_dmul
 339              	.LVL31:
 340 0044 2060     		str	r0, [r4]
 341 0046 6160     		str	r1, [r4, #4]
 102:main_cm0p.c   ****         
 103:main_cm0p.c   ****     return ac_y;
 104:main_cm0p.c   **** } 
 342              		.loc 1 104 0
 343              		@ sp needed
 344 0048 10BD     		pop	{r4, pc}
 345              	.L20:
 346 004a C046     		.align	2
 347              	.L19:
 348 004c 00000000 		.word	ac_y
 349 0050 00003040 		.word	1076887552
 350 0054 00408F40 		.word	1083129856
 351 0058 9A999999 		.word	-1717986918
 352 005c 99992340 		.word	1076074905
 353              		.cfi_endproc
 354              	.LFE425:
 355              		.size	yaccel_calculate, .-yaccel_calculate
 356              		.section	.text.zaccel_calculate,"ax",%progbits
 357              		.align	2
 358              		.global	zaccel_calculate
 359              		.code	16
 360              		.thumb_func
 361              		.type	zaccel_calculate, %function
 362              	zaccel_calculate:
 363              	.LFB426:
 105:main_cm0p.c   **** 
 106:main_cm0p.c   **** double zaccel_calculate() {
 364              		.loc 1 106 0
 365              		.cfi_startproc
 366              		@ args = 0, pretend = 0, frame = 0
 367              		@ frame_needed = 0, uses_anonymous_args = 0
 368 0000 10B5     		push	{r4, lr}
 369              		.cfi_def_cfa_offset 8
 370              		.cfi_offset 4, -8
 371              		.cfi_offset 14, -4
 107:main_cm0p.c   **** // Data read
 108:main_cm0p.c   ****     uint8 z = ReadRegister(0x2D);
 372              		.loc 1 108 0
 373 0002 2D20     		movs	r0, #45
 374 0004 FFF7FEFF 		bl	ReadRegister
 375              	.LVL32:
 109:main_cm0p.c   **** // Data SHIFT
 110:main_cm0p.c   ****     if (z > 127) ac_z = z - 256;
 376              		.loc 1 110 0
ARM GAS  C:\Users\admin\AppData\Local\Temp\cczmfw5p.s 			page 19


 377 0008 0306     		lsls	r3, r0, #24
 378 000a 07D5     		bpl	.L22
 379              		.loc 1 110 0 is_stmt 0 discriminator 1
 380 000c 0138     		subs	r0, r0, #1
 381              	.LVL33:
 382 000e FF38     		subs	r0, r0, #255
 383 0010 FFF7FEFF 		bl	__aeabi_i2d
 384              	.LVL34:
 385 0014 0D4B     		ldr	r3, .L24
 386 0016 9861     		str	r0, [r3, #24]
 387 0018 D961     		str	r1, [r3, #28]
 388 001a 04E0     		b	.L23
 389              	.LVL35:
 390              	.L22:
 111:main_cm0p.c   ****     else ac_z = z;
 391              		.loc 1 111 0 is_stmt 1
 392 001c FFF7FEFF 		bl	__aeabi_ui2d
 393              	.LVL36:
 394 0020 0A4B     		ldr	r3, .L24
 395 0022 9861     		str	r0, [r3, #24]
 396 0024 D961     		str	r1, [r3, #28]
 397              	.L23:
 112:main_cm0p.c   **** // Unit Conversion
 113:main_cm0p.c   ****     ac_z = (ac_z * UNIT_CONVERSION_DIGIT_MG)/THOUSANDS * GRAVITY;
 398              		.loc 1 113 0
 399 0026 094C     		ldr	r4, .L24
 400 0028 0022     		movs	r2, #0
 401 002a 094B     		ldr	r3, .L24+4
 402 002c A069     		ldr	r0, [r4, #24]
 403 002e E169     		ldr	r1, [r4, #28]
 404 0030 FFF7FEFF 		bl	__aeabi_dmul
 405              	.LVL37:
 406 0034 0022     		movs	r2, #0
 407 0036 074B     		ldr	r3, .L24+8
 408 0038 FFF7FEFF 		bl	__aeabi_ddiv
 409              	.LVL38:
 410 003c 064A     		ldr	r2, .L24+12
 411 003e 074B     		ldr	r3, .L24+16
 412 0040 FFF7FEFF 		bl	__aeabi_dmul
 413              	.LVL39:
 414 0044 A061     		str	r0, [r4, #24]
 415 0046 E161     		str	r1, [r4, #28]
 114:main_cm0p.c   ****         
 115:main_cm0p.c   ****     return ac_z;
 116:main_cm0p.c   **** } 
 416              		.loc 1 116 0
 417              		@ sp needed
 418 0048 10BD     		pop	{r4, pc}
 419              	.L25:
 420 004a C046     		.align	2
 421              	.L24:
 422 004c 00000000 		.word	.LANCHOR0
 423 0050 00003040 		.word	1076887552
 424 0054 00408F40 		.word	1083129856
 425 0058 9A999999 		.word	-1717986918
 426 005c 99992340 		.word	1076074905
 427              		.cfi_endproc
ARM GAS  C:\Users\admin\AppData\Local\Temp\cczmfw5p.s 			page 20


 428              	.LFE426:
 429              		.size	zaccel_calculate, .-zaccel_calculate
 430              		.global	__aeabi_d2iz
 431              		.global	__aeabi_dadd
 432              		.section	.text.setup,"ax",%progbits
 433              		.align	2
 434              		.global	setup
 435              		.code	16
 436              		.thumb_func
 437              		.type	setup, %function
 438              	setup:
 439              	.LFB427:
 117:main_cm0p.c   **** 
 118:main_cm0p.c   **** void setup(){
 440              		.loc 1 118 0
 441              		.cfi_startproc
 442              		@ args = 0, pretend = 0, frame = 0
 443              		@ frame_needed = 0, uses_anonymous_args = 0
 444 0000 70B5     		push	{r4, r5, r6, lr}
 445              		.cfi_def_cfa_offset 16
 446              		.cfi_offset 4, -16
 447              		.cfi_offset 5, -12
 448              		.cfi_offset 6, -8
 449              		.cfi_offset 14, -4
 450              	.LVL40:
 451              	.LBB20:
 119:main_cm0p.c   ****     for (int i = 0; i < readMax; i++) {
 452              		.loc 1 119 0
 453 0002 0024     		movs	r4, #0
 454 0004 10E0     		b	.L27
 455              	.LVL41:
 456              	.L28:
 120:main_cm0p.c   ****         readings_x[i] = xaccel_calculate(); 
 457              		.loc 1 120 0 discriminator 3
 458 0006 FFF7FEFF 		bl	xaccel_calculate
 459              	.LVL42:
 460 000a FFF7FEFF 		bl	__aeabi_d2iz
 461              	.LVL43:
 462 000e A200     		lsls	r2, r4, #2
 463 0010 1C4B     		ldr	r3, .L33
 464 0012 D050     		str	r0, [r2, r3]
 121:main_cm0p.c   ****         total_x = total_x+readings_x[i];
 465              		.loc 1 121 0 discriminator 3
 466 0014 1C4D     		ldr	r5, .L33+4
 467 0016 FFF7FEFF 		bl	__aeabi_i2d
 468              	.LVL44:
 469 001a 2A68     		ldr	r2, [r5]
 470 001c 6B68     		ldr	r3, [r5, #4]
 471 001e FFF7FEFF 		bl	__aeabi_dadd
 472              	.LVL45:
 473 0022 2860     		str	r0, [r5]
 474 0024 6960     		str	r1, [r5, #4]
 119:main_cm0p.c   ****     for (int i = 0; i < readMax; i++) {
 475              		.loc 1 119 0 discriminator 3
 476 0026 0134     		adds	r4, r4, #1
 477              	.LVL46:
 478              	.L27:
ARM GAS  C:\Users\admin\AppData\Local\Temp\cczmfw5p.s 			page 21


 119:main_cm0p.c   ****     for (int i = 0; i < readMax; i++) {
 479              		.loc 1 119 0 is_stmt 0 discriminator 1
 480 0028 052C     		cmp	r4, #5
 481 002a ECDD     		ble	.L28
 482 002c 0024     		movs	r4, #0
 483              	.LVL47:
 484 002e 10E0     		b	.L29
 485              	.LVL48:
 486              	.L30:
 487              	.LBE20:
 488              	.LBB21:
 122:main_cm0p.c   ****     } 
 123:main_cm0p.c   ****     for (int j = 0; j < readMax; j++) {
 124:main_cm0p.c   ****         readings_y[j] = yaccel_calculate(); 
 489              		.loc 1 124 0 is_stmt 1 discriminator 3
 490 0030 FFF7FEFF 		bl	yaccel_calculate
 491              	.LVL49:
 492 0034 FFF7FEFF 		bl	__aeabi_d2iz
 493              	.LVL50:
 494 0038 A200     		lsls	r2, r4, #2
 495 003a 144B     		ldr	r3, .L33+8
 496 003c D050     		str	r0, [r2, r3]
 125:main_cm0p.c   ****         total_y = total_y+readings_y[j];
 497              		.loc 1 125 0 discriminator 3
 498 003e 144D     		ldr	r5, .L33+12
 499 0040 FFF7FEFF 		bl	__aeabi_i2d
 500              	.LVL51:
 501 0044 2A68     		ldr	r2, [r5]
 502 0046 6B68     		ldr	r3, [r5, #4]
 503 0048 FFF7FEFF 		bl	__aeabi_dadd
 504              	.LVL52:
 505 004c 2860     		str	r0, [r5]
 506 004e 6960     		str	r1, [r5, #4]
 123:main_cm0p.c   ****         readings_y[j] = yaccel_calculate(); 
 507              		.loc 1 123 0 discriminator 3
 508 0050 0134     		adds	r4, r4, #1
 509              	.LVL53:
 510              	.L29:
 123:main_cm0p.c   ****         readings_y[j] = yaccel_calculate(); 
 511              		.loc 1 123 0 is_stmt 0 discriminator 1
 512 0052 052C     		cmp	r4, #5
 513 0054 ECDD     		ble	.L30
 514 0056 0024     		movs	r4, #0
 515              	.LVL54:
 516 0058 10E0     		b	.L31
 517              	.LVL55:
 518              	.L32:
 519              	.LBE21:
 520              	.LBB22:
 126:main_cm0p.c   ****     } 
 127:main_cm0p.c   ****     for (int k = 0; k < readMax; k++) {
 128:main_cm0p.c   ****         readings_z[k] = zaccel_calculate(); 
 521              		.loc 1 128 0 is_stmt 1 discriminator 3
 522 005a FFF7FEFF 		bl	zaccel_calculate
 523              	.LVL56:
 524 005e FFF7FEFF 		bl	__aeabi_d2iz
 525              	.LVL57:
ARM GAS  C:\Users\admin\AppData\Local\Temp\cczmfw5p.s 			page 22


 526 0062 A200     		lsls	r2, r4, #2
 527 0064 0B4B     		ldr	r3, .L33+16
 528 0066 D050     		str	r0, [r2, r3]
 129:main_cm0p.c   ****         total_z = total_z+readings_z[k];
 529              		.loc 1 129 0 discriminator 3
 530 0068 0B4D     		ldr	r5, .L33+20
 531 006a FFF7FEFF 		bl	__aeabi_i2d
 532              	.LVL58:
 533 006e 2A6A     		ldr	r2, [r5, #32]
 534 0070 6B6A     		ldr	r3, [r5, #36]
 535 0072 FFF7FEFF 		bl	__aeabi_dadd
 536              	.LVL59:
 537 0076 2862     		str	r0, [r5, #32]
 538 0078 6962     		str	r1, [r5, #36]
 127:main_cm0p.c   ****         readings_z[k] = zaccel_calculate(); 
 539              		.loc 1 127 0 discriminator 3
 540 007a 0134     		adds	r4, r4, #1
 541              	.LVL60:
 542              	.L31:
 127:main_cm0p.c   ****         readings_z[k] = zaccel_calculate(); 
 543              		.loc 1 127 0 is_stmt 0 discriminator 1
 544 007c 052C     		cmp	r4, #5
 545 007e ECDD     		ble	.L32
 546              	.LBE22:
 130:main_cm0p.c   ****     } 
 131:main_cm0p.c   **** }
 547              		.loc 1 131 0 is_stmt 1
 548              		@ sp needed
 549              	.LVL61:
 550 0080 70BD     		pop	{r4, r5, r6, pc}
 551              	.L34:
 552 0082 C046     		.align	2
 553              	.L33:
 554 0084 00000000 		.word	readings_x
 555 0088 00000000 		.word	total_x
 556 008c 00000000 		.word	readings_y
 557 0090 00000000 		.word	total_y
 558 0094 00000000 		.word	readings_z
 559 0098 00000000 		.word	.LANCHOR0
 560              		.cfi_endproc
 561              	.LFE427:
 562              		.size	setup, .-setup
 563              		.section	.text.CheckDetection,"ax",%progbits
 564              		.align	2
 565              		.global	CheckDetection
 566              		.code	16
 567              		.thumb_func
 568              		.type	CheckDetection, %function
 569              	CheckDetection:
 570              	.LFB428:
 132:main_cm0p.c   **** 
 133:main_cm0p.c   **** bool CheckDetection(){
 571              		.loc 1 133 0
 572              		.cfi_startproc
 573              		@ args = 0, pretend = 0, frame = 0
 574              		@ frame_needed = 0, uses_anonymous_args = 0
 575              		@ link register save eliminated.
ARM GAS  C:\Users\admin\AppData\Local\Temp\cczmfw5p.s 			page 23


 134:main_cm0p.c   ****     flag = Detected?1:0;
 576              		.loc 1 134 0
 577 0000 034B     		ldr	r3, .L36
 578 0002 986A     		ldr	r0, [r3, #40]
 579 0004 421E     		subs	r2, r0, #1
 580 0006 9041     		sbcs	r0, r0, r2
 581 0008 C0B2     		uxtb	r0, r0
 582 000a D862     		str	r0, [r3, #44]
 135:main_cm0p.c   ****     return flag;
 136:main_cm0p.c   **** }
 583              		.loc 1 136 0
 584              		@ sp needed
 585 000c 7047     		bx	lr
 586              	.L37:
 587 000e C046     		.align	2
 588              	.L36:
 589 0010 00000000 		.word	.LANCHOR0
 590              		.cfi_endproc
 591              	.LFE428:
 592              		.size	CheckDetection, .-CheckDetection
 593              		.global	__aeabi_dsub
 594              		.global	__aeabi_dcmpgt
 595              		.section	.text.main,"ax",%progbits
 596              		.align	2
 597              		.global	main
 598              		.code	16
 599              		.thumb_func
 600              		.type	main, %function
 601              	main:
 602              	.LFB429:
 137:main_cm0p.c   **** /*
 138:main_cm0p.c   **** int compareDats(){
 139:main_cm0p.c   ****     if(prev_avg_x > avg_x) return CarSlowing;
 140:main_cm0p.c   ****     else return CarNotSlowing;
 141:main_cm0p.c   **** }
 142:main_cm0p.c   **** */
 143:main_cm0p.c   **** 
 144:main_cm0p.c   **** int main(void)
 145:main_cm0p.c   **** {
 603              		.loc 1 145 0
 604              		.cfi_startproc
 605              		@ args = 0, pretend = 0, frame = 8
 606              		@ frame_needed = 0, uses_anonymous_args = 0
 607 0000 F0B5     		push	{r4, r5, r6, r7, lr}
 608              		.cfi_def_cfa_offset 20
 609              		.cfi_offset 4, -20
 610              		.cfi_offset 5, -16
 611              		.cfi_offset 6, -12
 612              		.cfi_offset 7, -8
 613              		.cfi_offset 14, -4
 614 0002 5F46     		mov	r7, fp
 615 0004 5646     		mov	r6, r10
 616 0006 4D46     		mov	r5, r9
 617 0008 4446     		mov	r4, r8
 618 000a F0B4     		push	{r4, r5, r6, r7}
 619              		.cfi_def_cfa_offset 36
 620              		.cfi_offset 8, -36
ARM GAS  C:\Users\admin\AppData\Local\Temp\cczmfw5p.s 			page 24


 621              		.cfi_offset 9, -32
 622              		.cfi_offset 10, -28
 623              		.cfi_offset 11, -24
 624 000c 83B0     		sub	sp, sp, #12
 625              		.cfi_def_cfa_offset 48
 626              	.LBB23:
 627              	.LBB24:
 628              		.file 3 "Generated_Source\\PSoC6\\pdl\\cmsis/include/cmsis_gcc.h"
   1:Generated_Source\PSoC6\pdl\cmsis/include/cmsis_gcc.h **** /**************************************************************************//**
   2:Generated_Source\PSoC6\pdl\cmsis/include/cmsis_gcc.h ****  * @file     cmsis_gcc.h
   3:Generated_Source\PSoC6\pdl\cmsis/include/cmsis_gcc.h ****  * @brief    CMSIS compiler GCC header file
   4:Generated_Source\PSoC6\pdl\cmsis/include/cmsis_gcc.h ****  * @version  V5.0.3
   5:Generated_Source\PSoC6\pdl\cmsis/include/cmsis_gcc.h ****  * @date     16. January 2018
   6:Generated_Source\PSoC6\pdl\cmsis/include/cmsis_gcc.h ****  ******************************************************************************/
   7:Generated_Source\PSoC6\pdl\cmsis/include/cmsis_gcc.h **** /*
   8:Generated_Source\PSoC6\pdl\cmsis/include/cmsis_gcc.h ****  * Copyright (c) 2009-2017 ARM Limited. All rights reserved.
   9:Generated_Source\PSoC6\pdl\cmsis/include/cmsis_gcc.h ****  *
  10:Generated_Source\PSoC6\pdl\cmsis/include/cmsis_gcc.h ****  * SPDX-License-Identifier: Apache-2.0
  11:Generated_Source\PSoC6\pdl\cmsis/include/cmsis_gcc.h ****  *
  12:Generated_Source\PSoC6\pdl\cmsis/include/cmsis_gcc.h ****  * Licensed under the Apache License, Version 2.0 (the License); you may
  13:Generated_Source\PSoC6\pdl\cmsis/include/cmsis_gcc.h ****  * not use this file except in compliance with the License.
  14:Generated_Source\PSoC6\pdl\cmsis/include/cmsis_gcc.h ****  * You may obtain a copy of the License at
  15:Generated_Source\PSoC6\pdl\cmsis/include/cmsis_gcc.h ****  *
  16:Generated_Source\PSoC6\pdl\cmsis/include/cmsis_gcc.h ****  * www.apache.org/licenses/LICENSE-2.0
  17:Generated_Source\PSoC6\pdl\cmsis/include/cmsis_gcc.h ****  *
  18:Generated_Source\PSoC6\pdl\cmsis/include/cmsis_gcc.h ****  * Unless required by applicable law or agreed to in writing, software
  19:Generated_Source\PSoC6\pdl\cmsis/include/cmsis_gcc.h ****  * distributed under the License is distributed on an AS IS BASIS, WITHOUT
  20:Generated_Source\PSoC6\pdl\cmsis/include/cmsis_gcc.h ****  * WARRANTIES OR CONDITIONS OF ANY KIND, either express or implied.
  21:Generated_Source\PSoC6\pdl\cmsis/include/cmsis_gcc.h ****  * See the License for the specific language governing permissions and
  22:Generated_Source\PSoC6\pdl\cmsis/include/cmsis_gcc.h ****  * limitations under the License.
  23:Generated_Source\PSoC6\pdl\cmsis/include/cmsis_gcc.h ****  */
  24:Generated_Source\PSoC6\pdl\cmsis/include/cmsis_gcc.h **** 
  25:Generated_Source\PSoC6\pdl\cmsis/include/cmsis_gcc.h **** #ifndef __CMSIS_GCC_H
  26:Generated_Source\PSoC6\pdl\cmsis/include/cmsis_gcc.h **** #define __CMSIS_GCC_H
  27:Generated_Source\PSoC6\pdl\cmsis/include/cmsis_gcc.h **** 
  28:Generated_Source\PSoC6\pdl\cmsis/include/cmsis_gcc.h **** /* ignore some GCC warnings */
  29:Generated_Source\PSoC6\pdl\cmsis/include/cmsis_gcc.h **** #pragma GCC diagnostic push
  30:Generated_Source\PSoC6\pdl\cmsis/include/cmsis_gcc.h **** #pragma GCC diagnostic ignored "-Wsign-conversion"
  31:Generated_Source\PSoC6\pdl\cmsis/include/cmsis_gcc.h **** #pragma GCC diagnostic ignored "-Wconversion"
  32:Generated_Source\PSoC6\pdl\cmsis/include/cmsis_gcc.h **** #pragma GCC diagnostic ignored "-Wunused-parameter"
  33:Generated_Source\PSoC6\pdl\cmsis/include/cmsis_gcc.h **** 
  34:Generated_Source\PSoC6\pdl\cmsis/include/cmsis_gcc.h **** /* Fallback for __has_builtin */
  35:Generated_Source\PSoC6\pdl\cmsis/include/cmsis_gcc.h **** #ifndef __has_builtin
  36:Generated_Source\PSoC6\pdl\cmsis/include/cmsis_gcc.h ****   #define __has_builtin(x) (0)
  37:Generated_Source\PSoC6\pdl\cmsis/include/cmsis_gcc.h **** #endif
  38:Generated_Source\PSoC6\pdl\cmsis/include/cmsis_gcc.h **** 
  39:Generated_Source\PSoC6\pdl\cmsis/include/cmsis_gcc.h **** /* CMSIS compiler specific defines */
  40:Generated_Source\PSoC6\pdl\cmsis/include/cmsis_gcc.h **** #ifndef   __ASM
  41:Generated_Source\PSoC6\pdl\cmsis/include/cmsis_gcc.h ****   #define __ASM                                  __asm
  42:Generated_Source\PSoC6\pdl\cmsis/include/cmsis_gcc.h **** #endif
  43:Generated_Source\PSoC6\pdl\cmsis/include/cmsis_gcc.h **** #ifndef   __INLINE
  44:Generated_Source\PSoC6\pdl\cmsis/include/cmsis_gcc.h ****   #define __INLINE                               inline
  45:Generated_Source\PSoC6\pdl\cmsis/include/cmsis_gcc.h **** #endif
  46:Generated_Source\PSoC6\pdl\cmsis/include/cmsis_gcc.h **** #ifndef   __STATIC_INLINE
  47:Generated_Source\PSoC6\pdl\cmsis/include/cmsis_gcc.h ****   #define __STATIC_INLINE                        static inline
  48:Generated_Source\PSoC6\pdl\cmsis/include/cmsis_gcc.h **** #endif
  49:Generated_Source\PSoC6\pdl\cmsis/include/cmsis_gcc.h **** #ifndef   __STATIC_FORCEINLINE                 
ARM GAS  C:\Users\admin\AppData\Local\Temp\cczmfw5p.s 			page 25


  50:Generated_Source\PSoC6\pdl\cmsis/include/cmsis_gcc.h ****   #define __STATIC_FORCEINLINE                   __attribute__((always_inline)) static inline
  51:Generated_Source\PSoC6\pdl\cmsis/include/cmsis_gcc.h **** #endif                                           
  52:Generated_Source\PSoC6\pdl\cmsis/include/cmsis_gcc.h **** #ifndef   __NO_RETURN
  53:Generated_Source\PSoC6\pdl\cmsis/include/cmsis_gcc.h ****   #define __NO_RETURN                            __attribute__((__noreturn__))
  54:Generated_Source\PSoC6\pdl\cmsis/include/cmsis_gcc.h **** #endif
  55:Generated_Source\PSoC6\pdl\cmsis/include/cmsis_gcc.h **** #ifndef   __USED
  56:Generated_Source\PSoC6\pdl\cmsis/include/cmsis_gcc.h ****   #define __USED                                 __attribute__((used))
  57:Generated_Source\PSoC6\pdl\cmsis/include/cmsis_gcc.h **** #endif
  58:Generated_Source\PSoC6\pdl\cmsis/include/cmsis_gcc.h **** #ifndef   __WEAK
  59:Generated_Source\PSoC6\pdl\cmsis/include/cmsis_gcc.h ****   #define __WEAK                                 __attribute__((weak))
  60:Generated_Source\PSoC6\pdl\cmsis/include/cmsis_gcc.h **** #endif
  61:Generated_Source\PSoC6\pdl\cmsis/include/cmsis_gcc.h **** #ifndef   __PACKED
  62:Generated_Source\PSoC6\pdl\cmsis/include/cmsis_gcc.h ****   #define __PACKED                               __attribute__((packed, aligned(1)))
  63:Generated_Source\PSoC6\pdl\cmsis/include/cmsis_gcc.h **** #endif
  64:Generated_Source\PSoC6\pdl\cmsis/include/cmsis_gcc.h **** #ifndef   __PACKED_STRUCT
  65:Generated_Source\PSoC6\pdl\cmsis/include/cmsis_gcc.h ****   #define __PACKED_STRUCT                        struct __attribute__((packed, aligned(1)))
  66:Generated_Source\PSoC6\pdl\cmsis/include/cmsis_gcc.h **** #endif
  67:Generated_Source\PSoC6\pdl\cmsis/include/cmsis_gcc.h **** #ifndef   __PACKED_UNION
  68:Generated_Source\PSoC6\pdl\cmsis/include/cmsis_gcc.h ****   #define __PACKED_UNION                         union __attribute__((packed, aligned(1)))
  69:Generated_Source\PSoC6\pdl\cmsis/include/cmsis_gcc.h **** #endif
  70:Generated_Source\PSoC6\pdl\cmsis/include/cmsis_gcc.h **** #ifndef   __UNALIGNED_UINT32        /* deprecated */
  71:Generated_Source\PSoC6\pdl\cmsis/include/cmsis_gcc.h ****   #pragma GCC diagnostic push
  72:Generated_Source\PSoC6\pdl\cmsis/include/cmsis_gcc.h ****   #pragma GCC diagnostic ignored "-Wpacked"
  73:Generated_Source\PSoC6\pdl\cmsis/include/cmsis_gcc.h ****   #pragma GCC diagnostic ignored "-Wattributes"
  74:Generated_Source\PSoC6\pdl\cmsis/include/cmsis_gcc.h ****   struct __attribute__((packed)) T_UINT32 { uint32_t v; };
  75:Generated_Source\PSoC6\pdl\cmsis/include/cmsis_gcc.h ****   #pragma GCC diagnostic pop
  76:Generated_Source\PSoC6\pdl\cmsis/include/cmsis_gcc.h ****   #define __UNALIGNED_UINT32(x)                  (((struct T_UINT32 *)(x))->v)
  77:Generated_Source\PSoC6\pdl\cmsis/include/cmsis_gcc.h **** #endif
  78:Generated_Source\PSoC6\pdl\cmsis/include/cmsis_gcc.h **** #ifndef   __UNALIGNED_UINT16_WRITE
  79:Generated_Source\PSoC6\pdl\cmsis/include/cmsis_gcc.h ****   #pragma GCC diagnostic push
  80:Generated_Source\PSoC6\pdl\cmsis/include/cmsis_gcc.h ****   #pragma GCC diagnostic ignored "-Wpacked"
  81:Generated_Source\PSoC6\pdl\cmsis/include/cmsis_gcc.h ****   #pragma GCC diagnostic ignored "-Wattributes"
  82:Generated_Source\PSoC6\pdl\cmsis/include/cmsis_gcc.h ****   __PACKED_STRUCT T_UINT16_WRITE { uint16_t v; };
  83:Generated_Source\PSoC6\pdl\cmsis/include/cmsis_gcc.h ****   #pragma GCC diagnostic pop
  84:Generated_Source\PSoC6\pdl\cmsis/include/cmsis_gcc.h ****   #define __UNALIGNED_UINT16_WRITE(addr, val)    (void)((((struct T_UINT16_WRITE *)(void *)(addr))-
  85:Generated_Source\PSoC6\pdl\cmsis/include/cmsis_gcc.h **** #endif
  86:Generated_Source\PSoC6\pdl\cmsis/include/cmsis_gcc.h **** #ifndef   __UNALIGNED_UINT16_READ
  87:Generated_Source\PSoC6\pdl\cmsis/include/cmsis_gcc.h ****   #pragma GCC diagnostic push
  88:Generated_Source\PSoC6\pdl\cmsis/include/cmsis_gcc.h ****   #pragma GCC diagnostic ignored "-Wpacked"
  89:Generated_Source\PSoC6\pdl\cmsis/include/cmsis_gcc.h ****   #pragma GCC diagnostic ignored "-Wattributes"
  90:Generated_Source\PSoC6\pdl\cmsis/include/cmsis_gcc.h ****   __PACKED_STRUCT T_UINT16_READ { uint16_t v; };
  91:Generated_Source\PSoC6\pdl\cmsis/include/cmsis_gcc.h ****   #pragma GCC diagnostic pop
  92:Generated_Source\PSoC6\pdl\cmsis/include/cmsis_gcc.h ****   #define __UNALIGNED_UINT16_READ(addr)          (((const struct T_UINT16_READ *)(const void *)(add
  93:Generated_Source\PSoC6\pdl\cmsis/include/cmsis_gcc.h **** #endif
  94:Generated_Source\PSoC6\pdl\cmsis/include/cmsis_gcc.h **** #ifndef   __UNALIGNED_UINT32_WRITE
  95:Generated_Source\PSoC6\pdl\cmsis/include/cmsis_gcc.h ****   #pragma GCC diagnostic push
  96:Generated_Source\PSoC6\pdl\cmsis/include/cmsis_gcc.h ****   #pragma GCC diagnostic ignored "-Wpacked"
  97:Generated_Source\PSoC6\pdl\cmsis/include/cmsis_gcc.h ****   #pragma GCC diagnostic ignored "-Wattributes"
  98:Generated_Source\PSoC6\pdl\cmsis/include/cmsis_gcc.h ****   __PACKED_STRUCT T_UINT32_WRITE { uint32_t v; };
  99:Generated_Source\PSoC6\pdl\cmsis/include/cmsis_gcc.h ****   #pragma GCC diagnostic pop
 100:Generated_Source\PSoC6\pdl\cmsis/include/cmsis_gcc.h ****   #define __UNALIGNED_UINT32_WRITE(addr, val)    (void)((((struct T_UINT32_WRITE *)(void *)(addr))-
 101:Generated_Source\PSoC6\pdl\cmsis/include/cmsis_gcc.h **** #endif
 102:Generated_Source\PSoC6\pdl\cmsis/include/cmsis_gcc.h **** #ifndef   __UNALIGNED_UINT32_READ
 103:Generated_Source\PSoC6\pdl\cmsis/include/cmsis_gcc.h ****   #pragma GCC diagnostic push
 104:Generated_Source\PSoC6\pdl\cmsis/include/cmsis_gcc.h ****   #pragma GCC diagnostic ignored "-Wpacked"
 105:Generated_Source\PSoC6\pdl\cmsis/include/cmsis_gcc.h ****   #pragma GCC diagnostic ignored "-Wattributes"
 106:Generated_Source\PSoC6\pdl\cmsis/include/cmsis_gcc.h ****   __PACKED_STRUCT T_UINT32_READ { uint32_t v; };
ARM GAS  C:\Users\admin\AppData\Local\Temp\cczmfw5p.s 			page 26


 107:Generated_Source\PSoC6\pdl\cmsis/include/cmsis_gcc.h ****   #pragma GCC diagnostic pop
 108:Generated_Source\PSoC6\pdl\cmsis/include/cmsis_gcc.h ****   #define __UNALIGNED_UINT32_READ(addr)          (((const struct T_UINT32_READ *)(const void *)(add
 109:Generated_Source\PSoC6\pdl\cmsis/include/cmsis_gcc.h **** #endif
 110:Generated_Source\PSoC6\pdl\cmsis/include/cmsis_gcc.h **** #ifndef   __ALIGNED
 111:Generated_Source\PSoC6\pdl\cmsis/include/cmsis_gcc.h ****   #define __ALIGNED(x)                           __attribute__((aligned(x)))
 112:Generated_Source\PSoC6\pdl\cmsis/include/cmsis_gcc.h **** #endif
 113:Generated_Source\PSoC6\pdl\cmsis/include/cmsis_gcc.h **** #ifndef   __RESTRICT
 114:Generated_Source\PSoC6\pdl\cmsis/include/cmsis_gcc.h ****   #define __RESTRICT                             __restrict
 115:Generated_Source\PSoC6\pdl\cmsis/include/cmsis_gcc.h **** #endif
 116:Generated_Source\PSoC6\pdl\cmsis/include/cmsis_gcc.h **** 
 117:Generated_Source\PSoC6\pdl\cmsis/include/cmsis_gcc.h **** 
 118:Generated_Source\PSoC6\pdl\cmsis/include/cmsis_gcc.h **** /* ###########################  Core Function Access  ########################### */
 119:Generated_Source\PSoC6\pdl\cmsis/include/cmsis_gcc.h **** /** \ingroup  CMSIS_Core_FunctionInterface
 120:Generated_Source\PSoC6\pdl\cmsis/include/cmsis_gcc.h ****     \defgroup CMSIS_Core_RegAccFunctions CMSIS Core Register Access Functions
 121:Generated_Source\PSoC6\pdl\cmsis/include/cmsis_gcc.h ****   @{
 122:Generated_Source\PSoC6\pdl\cmsis/include/cmsis_gcc.h ****  */
 123:Generated_Source\PSoC6\pdl\cmsis/include/cmsis_gcc.h **** 
 124:Generated_Source\PSoC6\pdl\cmsis/include/cmsis_gcc.h **** /**
 125:Generated_Source\PSoC6\pdl\cmsis/include/cmsis_gcc.h ****   \brief   Enable IRQ Interrupts
 126:Generated_Source\PSoC6\pdl\cmsis/include/cmsis_gcc.h ****   \details Enables IRQ interrupts by clearing the I-bit in the CPSR.
 127:Generated_Source\PSoC6\pdl\cmsis/include/cmsis_gcc.h ****            Can only be executed in Privileged modes.
 128:Generated_Source\PSoC6\pdl\cmsis/include/cmsis_gcc.h ****  */
 129:Generated_Source\PSoC6\pdl\cmsis/include/cmsis_gcc.h **** __STATIC_FORCEINLINE void __enable_irq(void)
 130:Generated_Source\PSoC6\pdl\cmsis/include/cmsis_gcc.h **** {
 131:Generated_Source\PSoC6\pdl\cmsis/include/cmsis_gcc.h ****   __ASM volatile ("cpsie i" : : : "memory");
 629              		.loc 3 131 0
 630              		.syntax divided
 631              	@ 131 "Generated_Source\PSoC6\pdl\cmsis/include/cmsis_gcc.h" 1
 632 000e 62B6     		cpsie i
 633              	@ 0 "" 2
 634              		.thumb
 635              		.syntax unified
 636              	.LBE24:
 637              	.LBE23:
 146:main_cm0p.c   ****     __enable_irq(); /* Enable global interrupts. */
 147:main_cm0p.c   ****     // Start UART
 148:main_cm0p.c   ****     UART_Start();
 638              		.loc 1 148 0
 639 0010 FFF7FEFF 		bl	UART_Start
 640              	.LVL62:
 149:main_cm0p.c   ****     setvbuf(stdin,NULL,_IONBF,0);
 641              		.loc 1 149 0
 642 0014 864B     		ldr	r3, .L44
 643 0016 1B68     		ldr	r3, [r3]
 644 0018 5868     		ldr	r0, [r3, #4]
 645 001a 0023     		movs	r3, #0
 646 001c 0222     		movs	r2, #2
 647 001e 0021     		movs	r1, #0
 648 0020 FFF7FEFF 		bl	setvbuf
 649              	.LVL63:
 150:main_cm0p.c   ****     
 151:main_cm0p.c   ****     // Set up I2C for LIS3DH
 152:main_cm0p.c   ****     SensorBus_Start();
 650              		.loc 1 152 0
 651 0024 FFF7FEFF 		bl	SensorBus_Start
 652              	.LVL64:
 153:main_cm0p.c   ****     register_setting.slaveAddress = 0x19;
ARM GAS  C:\Users\admin\AppData\Local\Temp\cczmfw5p.s 			page 27


 653              		.loc 1 153 0
 654 0028 1922     		movs	r2, #25
 655 002a 824B     		ldr	r3, .L44+4
 656 002c 1A71     		strb	r2, [r3, #4]
 657              	.LVL65:
 154:main_cm0p.c   ****     
 155:main_cm0p.c   ****     /* Set up LIS3DH registers */
 156:main_cm0p.c   ****     uint8_t temp_reg = 0x1F;
 157:main_cm0p.c   ****     uint8_t xyz_reg = 0x20;
 158:main_cm0p.c   ****     uint8_t adc_reg = 0x23;
 159:main_cm0p.c   ****     uint8_t CTRL5_reg = 0x24;
 160:main_cm0p.c   ****     uint8_t fifoCTRL_reg = 0x2E;
 161:main_cm0p.c   ****     WriteRegister(temp_reg, (ReadRegister(temp_reg) | 0b11000000)); // enable ADC
 658              		.loc 1 161 0
 659 002e 1F20     		movs	r0, #31
 660 0030 FFF7FEFF 		bl	ReadRegister
 661              	.LVL66:
 662 0034 4021     		movs	r1, #64
 663 0036 4942     		rsbs	r1, r1, #0
 664 0038 0143     		orrs	r1, r0
 665 003a C9B2     		uxtb	r1, r1
 666 003c 1F20     		movs	r0, #31
 667 003e FFF7FEFF 		bl	WriteRegister
 668              	.LVL67:
 162:main_cm0p.c   ****     WriteRegister(xyz_reg, (ReadRegister(xyz_reg) | 0b01000111)); // enable xyz axis
 669              		.loc 1 162 0
 670 0042 2020     		movs	r0, #32
 671 0044 FFF7FEFF 		bl	ReadRegister
 672              	.LVL68:
 673 0048 4723     		movs	r3, #71
 674 004a 0100     		movs	r1, r0
 675 004c 1943     		orrs	r1, r3
 676 004e C9B2     		uxtb	r1, r1
 677 0050 2020     		movs	r0, #32
 678 0052 FFF7FEFF 		bl	WriteRegister
 679              	.LVL69:
 163:main_cm0p.c   ****     WriteRegister(adc_reg, (ReadRegister(adc_reg) | 0b10000000)); // full-scale: +-2g
 680              		.loc 1 163 0
 681 0056 2320     		movs	r0, #35
 682 0058 FFF7FEFF 		bl	ReadRegister
 683              	.LVL70:
 684 005c 8024     		movs	r4, #128
 685 005e 6442     		rsbs	r4, r4, #0
 686 0060 0100     		movs	r1, r0
 687 0062 2143     		orrs	r1, r4
 688 0064 C9B2     		uxtb	r1, r1
 689 0066 2320     		movs	r0, #35
 690 0068 FFF7FEFF 		bl	WriteRegister
 691              	.LVL71:
 164:main_cm0p.c   ****     WriteRegister(CTRL5_reg, (ReadRegister(CTRL5_reg) | 0b01000000)); // enable FIFO
 692              		.loc 1 164 0
 693 006c 2420     		movs	r0, #36
 694 006e FFF7FEFF 		bl	ReadRegister
 695              	.LVL72:
 696 0072 4023     		movs	r3, #64
 697 0074 0100     		movs	r1, r0
 698 0076 1943     		orrs	r1, r3
ARM GAS  C:\Users\admin\AppData\Local\Temp\cczmfw5p.s 			page 28


 699 0078 C9B2     		uxtb	r1, r1
 700 007a 2420     		movs	r0, #36
 701 007c FFF7FEFF 		bl	WriteRegister
 702              	.LVL73:
 165:main_cm0p.c   ****     WriteRegister(fifoCTRL_reg, (ReadRegister(fifoCTRL_reg) | 0b10000000)); // FIFO:stream mode
 703              		.loc 1 165 0
 704 0080 2E20     		movs	r0, #46
 705 0082 FFF7FEFF 		bl	ReadRegister
 706              	.LVL74:
 707 0086 2100     		movs	r1, r4
 708 0088 0143     		orrs	r1, r0
 709 008a C9B2     		uxtb	r1, r1
 710 008c 2E20     		movs	r0, #46
 711 008e FFF7FEFF 		bl	WriteRegister
 712              	.LVL75:
 166:main_cm0p.c   ****    
 167:main_cm0p.c   ****     setup();
 713              		.loc 1 167 0
 714 0092 FFF7FEFF 		bl	setup
 715              	.LVL76:
 716              	.L40:
 168:main_cm0p.c   ****     for(;;){
 169:main_cm0p.c   **** // Smoothing Filter
 170:main_cm0p.c   ****     total_x = total_x - readings_x[readIndex];  
 717              		.loc 1 170 0
 718 0096 674C     		ldr	r4, .L44+4
 719 0098 674B     		ldr	r3, .L44+8
 720 009a 9A46     		mov	r10, r3
 721 009c 236B     		ldr	r3, [r4, #48]
 722 009e 9D00     		lsls	r5, r3, #2
 723 00a0 664F     		ldr	r7, .L44+12
 724 00a2 5346     		mov	r3, r10
 725 00a4 E858     		ldr	r0, [r5, r3]
 726 00a6 FFF7FEFF 		bl	__aeabi_i2d
 727              	.LVL77:
 728 00aa 0200     		movs	r2, r0
 729 00ac 0B00     		movs	r3, r1
 730 00ae 3868     		ldr	r0, [r7]
 731 00b0 7968     		ldr	r1, [r7, #4]
 732 00b2 FFF7FEFF 		bl	__aeabi_dsub
 733              	.LVL78:
 734 00b6 3860     		str	r0, [r7]
 735 00b8 7960     		str	r1, [r7, #4]
 171:main_cm0p.c   ****     total_y = total_y - readings_y[readIndex];  
 736              		.loc 1 171 0
 737 00ba 614B     		ldr	r3, .L44+16
 738 00bc 9946     		mov	r9, r3
 739 00be 614E     		ldr	r6, .L44+20
 740 00c0 E858     		ldr	r0, [r5, r3]
 741 00c2 FFF7FEFF 		bl	__aeabi_i2d
 742              	.LVL79:
 743 00c6 0200     		movs	r2, r0
 744 00c8 0B00     		movs	r3, r1
 745 00ca 3068     		ldr	r0, [r6]
 746 00cc 7168     		ldr	r1, [r6, #4]
 747 00ce FFF7FEFF 		bl	__aeabi_dsub
 748              	.LVL80:
ARM GAS  C:\Users\admin\AppData\Local\Temp\cczmfw5p.s 			page 29


 749 00d2 3060     		str	r0, [r6]
 750 00d4 7160     		str	r1, [r6, #4]
 172:main_cm0p.c   ****     total_z = total_z - readings_z[readIndex];
 751              		.loc 1 172 0
 752 00d6 5C4B     		ldr	r3, .L44+24
 753 00d8 9846     		mov	r8, r3
 754 00da E858     		ldr	r0, [r5, r3]
 755 00dc FFF7FEFF 		bl	__aeabi_i2d
 756              	.LVL81:
 757 00e0 0200     		movs	r2, r0
 758 00e2 0B00     		movs	r3, r1
 759 00e4 206A     		ldr	r0, [r4, #32]
 760 00e6 616A     		ldr	r1, [r4, #36]
 761 00e8 FFF7FEFF 		bl	__aeabi_dsub
 762              	.LVL82:
 763 00ec 2062     		str	r0, [r4, #32]
 764 00ee 6162     		str	r1, [r4, #36]
 173:main_cm0p.c   ****     
 174:main_cm0p.c   ****     readings_x[readIndex] = xaccel_calculate(); 
 765              		.loc 1 174 0
 766 00f0 FFF7FEFF 		bl	xaccel_calculate
 767              	.LVL83:
 768 00f4 FFF7FEFF 		bl	__aeabi_d2iz
 769              	.LVL84:
 770 00f8 5346     		mov	r3, r10
 771 00fa E850     		str	r0, [r5, r3]
 175:main_cm0p.c   ****     readings_y[readIndex] = yaccel_calculate(); 
 772              		.loc 1 175 0
 773 00fc 256B     		ldr	r5, [r4, #48]
 774 00fe FFF7FEFF 		bl	yaccel_calculate
 775              	.LVL85:
 776 0102 AD00     		lsls	r5, r5, #2
 777 0104 FFF7FEFF 		bl	__aeabi_d2iz
 778              	.LVL86:
 779 0108 4B46     		mov	r3, r9
 780 010a E850     		str	r0, [r5, r3]
 176:main_cm0p.c   ****     readings_z[readIndex] = zaccel_calculate();
 781              		.loc 1 176 0
 782 010c 256B     		ldr	r5, [r4, #48]
 783 010e FFF7FEFF 		bl	zaccel_calculate
 784              	.LVL87:
 785 0112 AD00     		lsls	r5, r5, #2
 786 0114 FFF7FEFF 		bl	__aeabi_d2iz
 787              	.LVL88:
 788 0118 4346     		mov	r3, r8
 789 011a E850     		str	r0, [r5, r3]
 177:main_cm0p.c   ****     
 178:main_cm0p.c   ****     total_x = total_x + readings_x[readIndex];  
 790              		.loc 1 178 0
 791 011c 256B     		ldr	r5, [r4, #48]
 792 011e AB00     		lsls	r3, r5, #2
 793 0120 9B46     		mov	fp, r3
 794 0122 5346     		mov	r3, r10
 795 0124 5A46     		mov	r2, fp
 796 0126 D058     		ldr	r0, [r2, r3]
 797 0128 FFF7FEFF 		bl	__aeabi_i2d
 798              	.LVL89:
ARM GAS  C:\Users\admin\AppData\Local\Temp\cczmfw5p.s 			page 30


 799 012c 3A68     		ldr	r2, [r7]
 800 012e 7B68     		ldr	r3, [r7, #4]
 801 0130 FFF7FEFF 		bl	__aeabi_dadd
 802              	.LVL90:
 803 0134 3860     		str	r0, [r7]
 804 0136 7960     		str	r1, [r7, #4]
 179:main_cm0p.c   ****     total_y = total_y + readings_y[readIndex];  
 805              		.loc 1 179 0
 806 0138 4B46     		mov	r3, r9
 807 013a 5A46     		mov	r2, fp
 808 013c D058     		ldr	r0, [r2, r3]
 809 013e FFF7FEFF 		bl	__aeabi_i2d
 810              	.LVL91:
 811 0142 3268     		ldr	r2, [r6]
 812 0144 7368     		ldr	r3, [r6, #4]
 813 0146 FFF7FEFF 		bl	__aeabi_dadd
 814              	.LVL92:
 815 014a 3060     		str	r0, [r6]
 816 014c 7160     		str	r1, [r6, #4]
 180:main_cm0p.c   ****     total_z = total_z + readings_z[readIndex]; 
 817              		.loc 1 180 0
 818 014e 4346     		mov	r3, r8
 819 0150 5A46     		mov	r2, fp
 820 0152 D058     		ldr	r0, [r2, r3]
 821 0154 FFF7FEFF 		bl	__aeabi_i2d
 822              	.LVL93:
 823 0158 226A     		ldr	r2, [r4, #32]
 824 015a 636A     		ldr	r3, [r4, #36]
 825 015c FFF7FEFF 		bl	__aeabi_dadd
 826              	.LVL94:
 827 0160 2062     		str	r0, [r4, #32]
 828 0162 6162     		str	r1, [r4, #36]
 181:main_cm0p.c   ****     
 182:main_cm0p.c   ****     readIndex = readIndex + 1;
 829              		.loc 1 182 0
 830 0164 0135     		adds	r5, r5, #1
 831 0166 2563     		str	r5, [r4, #48]
 183:main_cm0p.c   ****    
 184:main_cm0p.c   ****     if (readIndex >= readMax) {  
 832              		.loc 1 184 0
 833 0168 052D     		cmp	r5, #5
 834 016a 02DD     		ble	.L39
 185:main_cm0p.c   ****     readIndex = 0;
 835              		.loc 1 185 0
 836 016c 0022     		movs	r2, #0
 837 016e 314B     		ldr	r3, .L44+4
 838 0170 1A63     		str	r2, [r3, #48]
 839              	.L39:
 186:main_cm0p.c   ****     }  
 187:main_cm0p.c   ****     prev_avg_x = avg_x;
 840              		.loc 1 187 0
 841 0172 364D     		ldr	r5, .L44+28
 842 0174 2A68     		ldr	r2, [r5]
 843 0176 6B68     		ldr	r3, [r5, #4]
 844 0178 3549     		ldr	r1, .L44+32
 845 017a 8946     		mov	r9, r1
 846 017c 0A60     		str	r2, [r1]
ARM GAS  C:\Users\admin\AppData\Local\Temp\cczmfw5p.s 			page 31


 847 017e 4B60     		str	r3, [r1, #4]
 188:main_cm0p.c   ****     prev_avg_y = avg_y;
 848              		.loc 1 188 0
 849 0180 344E     		ldr	r6, .L44+36
 850 0182 354F     		ldr	r7, .L44+40
 851 0184 3868     		ldr	r0, [r7]
 852 0186 7968     		ldr	r1, [r7, #4]
 853 0188 3060     		str	r0, [r6]
 854 018a 7160     		str	r1, [r6, #4]
 189:main_cm0p.c   ****     prev_avg_z = avg_z;
 855              		.loc 1 189 0
 856 018c 294C     		ldr	r4, .L44+4
 857 018e 206C     		ldr	r0, [r4, #64]
 858 0190 616C     		ldr	r1, [r4, #68]
 859 0192 A063     		str	r0, [r4, #56]
 860 0194 E163     		str	r1, [r4, #60]
 190:main_cm0p.c   ****     
 191:main_cm0p.c   ****     printf("prev_ac_x : %f\n\r",prev_avg_x);
 861              		.loc 1 191 0
 862 0196 3148     		ldr	r0, .L44+44
 863 0198 FFF7FEFF 		bl	printf
 864              	.LVL95:
 192:main_cm0p.c   ****     printf("prev_ac_y : %f\n\r",prev_avg_y);
 865              		.loc 1 192 0
 866 019c 3268     		ldr	r2, [r6]
 867 019e 7368     		ldr	r3, [r6, #4]
 868 01a0 2F48     		ldr	r0, .L44+48
 869 01a2 FFF7FEFF 		bl	printf
 870              	.LVL96:
 193:main_cm0p.c   ****     printf("prev_ac_z : %f\n\r",prev_avg_z);
 871              		.loc 1 193 0
 872 01a6 A26B     		ldr	r2, [r4, #56]
 873 01a8 E36B     		ldr	r3, [r4, #60]
 874 01aa 2E48     		ldr	r0, .L44+52
 875 01ac FFF7FEFF 		bl	printf
 876              	.LVL97:
 194:main_cm0p.c   ****     
 195:main_cm0p.c   ****     CyDelay(100);
 877              		.loc 1 195 0
 878 01b0 6420     		movs	r0, #100
 879 01b2 FFF7FEFF 		bl	Cy_SysLib_Delay
 880              	.LVL98:
 196:main_cm0p.c   ****     
 197:main_cm0p.c   ****     avg_x = total_x / readMax;
 881              		.loc 1 197 0
 882 01b6 0022     		movs	r2, #0
 883 01b8 2B4B     		ldr	r3, .L44+56
 884 01ba 2049     		ldr	r1, .L44+12
 885 01bc 0868     		ldr	r0, [r1]
 886 01be 4968     		ldr	r1, [r1, #4]
 887 01c0 FFF7FEFF 		bl	__aeabi_ddiv
 888              	.LVL99:
 889 01c4 0090     		str	r0, [sp]
 890 01c6 0191     		str	r1, [sp, #4]
 891 01c8 0200     		movs	r2, r0
 892 01ca 0B00     		movs	r3, r1
 893 01cc 2A60     		str	r2, [r5]
ARM GAS  C:\Users\admin\AppData\Local\Temp\cczmfw5p.s 			page 32


 894 01ce 6B60     		str	r3, [r5, #4]
 198:main_cm0p.c   ****     avg_y = total_y / readMax;
 895              		.loc 1 198 0
 896 01d0 0022     		movs	r2, #0
 897 01d2 254B     		ldr	r3, .L44+56
 898 01d4 1B49     		ldr	r1, .L44+20
 899 01d6 0868     		ldr	r0, [r1]
 900 01d8 4968     		ldr	r1, [r1, #4]
 901 01da FFF7FEFF 		bl	__aeabi_ddiv
 902              	.LVL100:
 903 01de 3860     		str	r0, [r7]
 904 01e0 7960     		str	r1, [r7, #4]
 199:main_cm0p.c   ****     avg_z = total_z / readMax;
 905              		.loc 1 199 0
 906 01e2 0022     		movs	r2, #0
 907 01e4 204B     		ldr	r3, .L44+56
 908 01e6 206A     		ldr	r0, [r4, #32]
 909 01e8 616A     		ldr	r1, [r4, #36]
 910 01ea FFF7FEFF 		bl	__aeabi_ddiv
 911              	.LVL101:
 912 01ee 2064     		str	r0, [r4, #64]
 913 01f0 6164     		str	r1, [r4, #68]
 200:main_cm0p.c   ****     
 201:main_cm0p.c   ****     printf("ac_x : %f\n\r",avg_x);
 914              		.loc 1 201 0
 915 01f2 009A     		ldr	r2, [sp]
 916 01f4 019B     		ldr	r3, [sp, #4]
 917 01f6 1D48     		ldr	r0, .L44+60
 918 01f8 FFF7FEFF 		bl	printf
 919              	.LVL102:
 202:main_cm0p.c   ****     printf("ac_y : %f\n\r",avg_y);
 920              		.loc 1 202 0
 921 01fc 3A68     		ldr	r2, [r7]
 922 01fe 7B68     		ldr	r3, [r7, #4]
 923 0200 1B48     		ldr	r0, .L44+64
 924 0202 FFF7FEFF 		bl	printf
 925              	.LVL103:
 203:main_cm0p.c   ****     printf("ac_z : %f\n\r",avg_z);
 926              		.loc 1 203 0
 927 0206 226C     		ldr	r2, [r4, #64]
 928 0208 636C     		ldr	r3, [r4, #68]
 929 020a 1A48     		ldr	r0, .L44+68
 930 020c FFF7FEFF 		bl	printf
 931              	.LVL104:
 204:main_cm0p.c   **** 
 205:main_cm0p.c   ****     CheckDetection();
 932              		.loc 1 205 0
 933 0210 FFF7FEFF 		bl	CheckDetection
 934              	.LVL105:
 206:main_cm0p.c   ****     if(1){ // If Object Is Detected
 207:main_cm0p.c   ****         if(avg_x > prev_avg_x){
 935              		.loc 1 207 0
 936 0214 2868     		ldr	r0, [r5]
 937 0216 6968     		ldr	r1, [r5, #4]
 938 0218 4B46     		mov	r3, r9
 939 021a 1A68     		ldr	r2, [r3]
 940 021c 5B68     		ldr	r3, [r3, #4]
ARM GAS  C:\Users\admin\AppData\Local\Temp\cczmfw5p.s 			page 33


 941 021e FFF7FEFF 		bl	__aeabi_dcmpgt
 942              	.LVL106:
 943 0222 0028     		cmp	r0, #0
 944 0224 00D1     		bne	.LCB785
 945 0226 36E7     		b	.L40	@long jump
 946              	.LCB785:
 208:main_cm0p.c   ****         printf("WARNING : Car Not Slowing Down\n\r");
 947              		.loc 1 208 0
 948 0228 1348     		ldr	r0, .L44+72
 949 022a FFF7FEFF 		bl	printf
 950              	.LVL107:
 951 022e 32E7     		b	.L40
 952              	.L45:
 953              		.align	2
 954              	.L44:
 955 0230 00000000 		.word	_impure_ptr
 956 0234 00000000 		.word	.LANCHOR0
 957 0238 00000000 		.word	readings_x
 958 023c 00000000 		.word	total_x
 959 0240 00000000 		.word	readings_y
 960 0244 00000000 		.word	total_y
 961 0248 00000000 		.word	readings_z
 962 024c 00000000 		.word	avg_x
 963 0250 00000000 		.word	prev_avg_x
 964 0254 00000000 		.word	prev_avg_y
 965 0258 00000000 		.word	avg_y
 966 025c 00000000 		.word	.LC29
 967 0260 14000000 		.word	.LC31
 968 0264 28000000 		.word	.LC33
 969 0268 00001840 		.word	1075314688
 970 026c 3C000000 		.word	.LC35
 971 0270 48000000 		.word	.LC37
 972 0274 54000000 		.word	.LC39
 973 0278 60000000 		.word	.LC41
 974              		.cfi_endproc
 975              	.LFE429:
 976              		.size	main, .-main
 977              		.global	prev_avg_z
 978              		.comm	prev_avg_y,8,8
 979              		.comm	prev_avg_x,8,8
 980              		.global	avg_z
 981              		.comm	avg_y,8,8
 982              		.comm	avg_x,8,8
 983              		.global	total_z
 984              		.comm	total_y,8,8
 985              		.comm	total_x,8,8
 986              		.global	ac_z
 987              		.comm	ac_y,8,8
 988              		.comm	ac_x,8,8
 989              		.global	readIndex
 990              		.comm	readings_z,24,4
 991              		.comm	readings_y,24,4
 992              		.comm	readings_x,24,4
 993              		.global	Detected
 994              		.global	flag
 995              		.section	.rodata.str1.4,"aMS",%progbits,1
 996              		.align	2
ARM GAS  C:\Users\admin\AppData\Local\Temp\cczmfw5p.s 			page 34


 997              	.LC29:
 998 0000 70726576 		.ascii	"prev_ac_x : %f\012\015\000"
 998      5F61635F 
 998      78203A20 
 998      25660A0D 
 998      00
 999 0011 000000   		.space	3
 1000              	.LC31:
 1001 0014 70726576 		.ascii	"prev_ac_y : %f\012\015\000"
 1001      5F61635F 
 1001      79203A20 
 1001      25660A0D 
 1001      00
 1002 0025 000000   		.space	3
 1003              	.LC33:
 1004 0028 70726576 		.ascii	"prev_ac_z : %f\012\015\000"
 1004      5F61635F 
 1004      7A203A20 
 1004      25660A0D 
 1004      00
 1005 0039 000000   		.space	3
 1006              	.LC35:
 1007 003c 61635F78 		.ascii	"ac_x : %f\012\015\000"
 1007      203A2025 
 1007      660A0D00 
 1008              	.LC37:
 1009 0048 61635F79 		.ascii	"ac_y : %f\012\015\000"
 1009      203A2025 
 1009      660A0D00 
 1010              	.LC39:
 1011 0054 61635F7A 		.ascii	"ac_z : %f\012\015\000"
 1011      203A2025 
 1011      660A0D00 
 1012              	.LC41:
 1013 0060 5741524E 		.ascii	"WARNING : Car Not Slowing Down\012\015\000"
 1013      494E4720 
 1013      3A204361 
 1013      72204E6F 
 1013      7420536C 
 1014              		.bss
 1015              		.align	3
 1016              		.set	.LANCHOR0,. + 0
 1017              		.type	wbuff, %object
 1018              		.size	wbuff, 2
 1019              	wbuff:
 1020 0000 0000     		.space	2
 1021 0002 0000     		.space	2
 1022              		.type	register_setting, %object
 1023              		.size	register_setting, 16
 1024              	register_setting:
 1025 0004 00000000 		.space	16
 1025      00000000 
 1025      00000000 
 1025      00000000 
 1026              		.type	rbuff, %object
 1027              		.size	rbuff, 2
 1028              	rbuff:
ARM GAS  C:\Users\admin\AppData\Local\Temp\cczmfw5p.s 			page 35


 1029 0014 0000     		.space	2
 1030 0016 0000     		.space	2
 1031              		.type	ac_z, %object
 1032              		.size	ac_z, 8
 1033              	ac_z:
 1034 0018 00000000 		.space	8
 1034      00000000 
 1035              		.type	total_z, %object
 1036              		.size	total_z, 8
 1037              	total_z:
 1038 0020 00000000 		.space	8
 1038      00000000 
 1039              		.type	Detected, %object
 1040              		.size	Detected, 4
 1041              	Detected:
 1042 0028 00000000 		.space	4
 1043              		.type	flag, %object
 1044              		.size	flag, 4
 1045              	flag:
 1046 002c 00000000 		.space	4
 1047              		.type	readIndex, %object
 1048              		.size	readIndex, 4
 1049              	readIndex:
 1050 0030 00000000 		.space	4
 1051 0034 00000000 		.space	4
 1052              		.type	prev_avg_z, %object
 1053              		.size	prev_avg_z, 8
 1054              	prev_avg_z:
 1055 0038 00000000 		.space	8
 1055      00000000 
 1056              		.type	avg_z, %object
 1057              		.size	avg_z, 8
 1058              	avg_z:
 1059 0040 00000000 		.space	8
 1059      00000000 
 1060              		.text
 1061              	.Letext0:
 1062              		.file 4 "c:\\program files (x86)\\cypress\\psoc creator\\4.4\\psoc creator\\import\\gnu\\arm\\5.4.
 1063              		.file 5 "c:\\program files (x86)\\cypress\\psoc creator\\4.4\\psoc creator\\import\\gnu\\arm\\5.4.
 1064              		.file 6 "Generated_Source\\PSoC6\\pdl\\devices/psoc6/include/ip/cyip_scb.h"
 1065              		.file 7 "Generated_Source\\PSoC6\\pdl\\devices/psoc6/include/psoc6_01_config.h"
 1066              		.file 8 "Generated_Source\\PSoC6\\pdl\\drivers/peripheral/device/cy_device.h"
 1067              		.file 9 "Generated_Source\\PSoC6\\pdl\\drivers/peripheral/syslib/cy_syslib.h"
 1068              		.file 10 "Generated_Source\\PSoC6\\pdl\\drivers/peripheral/scb/cy_scb_i2c.h"
 1069              		.file 11 "Generated_Source\\PSoC6\\pdl\\drivers/peripheral/scb/cy_scb_uart.h"
 1070              		.file 12 "c:\\program files (x86)\\cypress\\psoc creator\\4.4\\psoc creator\\import\\gnu\\arm\\5.4
 1071              		.file 13 "c:\\program files (x86)\\cypress\\psoc creator\\4.4\\psoc creator\\import\\gnu\\arm\\5.4
 1072              		.file 14 "c:\\program files (x86)\\cypress\\psoc creator\\4.4\\psoc creator\\import\\gnu\\arm\\5.4
 1073              		.file 15 "c:\\program files (x86)\\cypress\\psoc creator\\4.4\\psoc creator\\import\\gnu\\arm\\5.4
 1074              		.file 16 "Generated_Source\\PSoC6/UART.h"
 1075              		.file 17 "c:\\program files (x86)\\cypress\\psoc creator\\4.4\\psoc creator\\import\\gnu\\arm\\5.4